

Microchip MPLAB XC8 Assembler V2.10 build 88905656 
                                                                                               Sat Sep 19 16:20:20 2020

Microchip MPLAB XC8 C Compiler v2.10 (Free license) build 20190730164152 Og1 
     1                           	processor	18F46K20
     2                           	fnconf	rparam,??,?,0
     3                           	opt	pw 120
     4                           	opt	flic
     5                           	psect	nvCOMRAM,global,class=COMRAM,space=1,delta=1,noexec
     6                           	psect	cinit,global,reloc=2,class=CODE,delta=1
     7                           	psect	cstackCOMRAM,global,class=COMRAM,space=1,delta=1,noexec
     8                           	psect	text0,global,reloc=2,class=CODE,delta=1
     9                           	psect	text1,global,reloc=2,class=CODE,delta=1
    10                           	psect	text2,global,reloc=2,class=CODE,delta=1
    11                           	psect	text3,global,reloc=2,class=CODE,delta=1
    12                           	psect	text4,global,reloc=2,class=CODE,delta=1
    13                           	psect	text5,global,reloc=2,class=CODE,delta=1
    14                           	psect	text6,global,reloc=2,class=CODE,delta=1
    15                           	psect	text7,global,reloc=2,class=CODE,delta=1
    16                           	psect	intcodelo,global,reloc=2,class=CODE,delta=1
    17                           	psect	text9,global,reloc=2,class=CODE,delta=1
    18                           	psect	text10,global,reloc=2,class=CODE,delta=1
    19                           	psect	text11,global,reloc=2,class=CODE,delta=1
    20                           	psect	intcode,global,reloc=2,class=CODE,delta=1
    21                           	psect	intcode_body,global,reloc=2,class=CODE,delta=1
    22                           	psect	text13,global,reloc=2,class=CODE,delta=1
    23                           	psect	text14,global,reloc=2,class=CODE,delta=1
    24                           	psect	text15,global,reloc=2,class=CODE,delta=1
    25                           	psect	intsave_regs,global,class=BIGRAM,space=1,delta=1,noexec
    26                           	psect	text16,global,reloc=2,class=CODE,delta=1
    27                           	psect	rparam,global,class=COMRAM,space=1,delta=1,noexec
    28                           	psect	temp,global,ovrld,common,class=COMRAM,space=1,delta=1
    29  0000                     
    30                           ; Version 2.10
    31                           ; Generated 31/07/2019 GMT
    32                           ; 
    33                           ; Copyright © 2019, Microchip Technology Inc. and its subsidiaries ("Microchip")
    34                           ; All rights reserved.
    35                           ; 
    36                           ; This software is developed by Microchip Technology Inc. and its subsidiaries ("Microch
      +                          ip").
    37                           ; 
    38                           ; Redistribution and use in source and binary forms, with or without modification, are
    39                           ; permitted provided that the following conditions are met:
    40                           ; 
    41                           ;     1. Redistributions of source code must retain the above copyright notice, this lis
      +                          t of
    42                           ;        conditions and the following disclaimer.
    43                           ; 
    44                           ;     2. Redistributions in binary form must reproduce the above copyright notice, this 
      +                          list
    45                           ;        of conditions and the following disclaimer in the documentation and/or other
    46                           ;        materials provided with the distribution.
    47                           ; 
    48                           ;     3. Microchip's name may not be used to endorse or promote products derived from th
      +                          is
    49                           ;        software without specific prior written permission.
    50                           ; 
    51                           ; THIS SOFTWARE IS PROVIDED BY MICROCHIP "AS IS" AND ANY EXPRESS OR IMPLIED WARRANTIES,
    52                           ; INCLUDING, BUT NOT LIMITED TO, THE IMPLIED WARRANTIES OF MERCHANTABILITY AND FITNESS F
      +                          OR
    53                           ; PURPOSE ARE DISCLAIMED.  IN NO EVENT SHALL MICROCHIP BE LIABLE FOR ANY DIRECT, INDIREC
      +                          T,
    54                           ; INCIDENTAL, SPECIAL, EXEMPLARY, OR CONSEQUENTIAL DAMAGES (INCLUDING BUT NOT LIMITED TO
    55                           ; PROCUREMENT OF SUBSTITUTE GOODS OR SERVICES; LOSS OF USE, DATA OR PROFITS; OR BUSINESS
    56                           ; INTERRUPTION) HOWSOEVER CAUSED AND ON ANY THEORY OF LIABILITY, WHETHER IN CONTRACT, ST
      +                          RICT
    57                           ; LIABILITY, OR TORT (INCLUDING NEGLIGENCE OR OTHERWISE) ARISING IN ANY WAY OUT OF THE U
      +                          SE OF
    58                           ; THIS SOFTWARE, EVEN IF ADVISED OF THE POSSIBILITY OF SUCH DAMAGE.
    59                           ; 
    60                           ; 
    61                           ; Code-generator required, PIC18F46K20 Definitions
    62                           ; 
    63                           ; SFR Addresses
    64  0000                     
    65                           	psect	nvCOMRAM
    66  00000D                     __pnvCOMRAM:
    67                           	opt callstack 0
    68  00000D                     _INT1_InterruptHandler:
    69                           	opt callstack 0
    70  00000D                     	ds	2
    71  00000F                     _INT0_InterruptHandler:
    72                           	opt callstack 0
    73  00000F                     	ds	2
    74  0000                     _PORTCbits	set	3970
    75  0000                     _INTCON3bits	set	4080
    76  0000                     _RCONbits	set	4048
    77  0000                     _OSCTUNE	set	3995
    78  0000                     _OSCCON	set	4051
    79  0000                     _INTCONbits	set	4082
    80  0000                     _INTCON2bits	set	4081
    81  0000                     _WPUB	set	3964
    82  0000                     _ANSELH	set	3967
    83  0000                     _ANSEL	set	3966
    84  0000                     _TRISD	set	3989
    85  0000                     _TRISC	set	3988
    86  0000                     _TRISB	set	3987
    87  0000                     _TRISA	set	3986
    88  0000                     _TRISE	set	3990
    89  0000                     _LATC	set	3979
    90  0000                     _LATB	set	3978
    91  0000                     _LATA	set	3977
    92  0000                     _LATD	set	3980
    93  0000                     _LATE	set	3981
    94                           
    95                           ; #config settings
    96  0000                     
    97                           	psect	cinit
    98  003E7A                     __pcinit:
    99                           	opt callstack 0
   100  003E7A                     start_initialization:
   101                           	opt callstack 0
   102  003E7A                     __initialization:
   103                           	opt callstack 0
   104  003E7A                     end_of_initialization:
   105                           	opt callstack 0
   106  003E7A                     __end_of__initialization:
   107                           	opt callstack 0
   108  003E7A  9011               	bcf	int$flags,0,c	;clear compiler interrupt flag (level 1)
   109  003E7C  9211               	bcf	int$flags,1,c	;clear compiler interrupt flag (level 2)
   110  003E7E  0E00               	movlw	low (__Lmediumconst shr (0+16))
   111  003E80  6EF8               	movwf	tblptru,c
   112  003E82  0100               	movlb	0
   113  003E84  EFE5  F01F         	goto	_main	;jump to C main() function
   114                           
   115                           	psect	cstackCOMRAM
   116  000001                     __pcstackCOMRAM:
   117                           	opt callstack 0
   118  000001                     ??_INT0_DefaultInterruptHandler:
   119  000001                     
   120                           ; 1 bytes @ 0x0
   121  000001                     	ds	1
   122  000002                     ??_INTERRUPT_InterruptManagerHigh:
   123                           
   124                           ; 1 bytes @ 0x1
   125  000002                     	ds	2
   126  000004                     ??_INT1_DefaultInterruptHandler:
   127                           
   128                           ; 1 bytes @ 0x3
   129  000004                     	ds	1
   130  000005                     ??_INTERRUPT_InterruptManagerLow:
   131                           
   132                           ; 1 bytes @ 0x4
   133  000005                     	ds	5
   134  00000A                     INT0_SetInterruptHandler@InterruptHandler:
   135                           	opt callstack 0
   136  00000A                     INT1_SetInterruptHandler@InterruptHandler:
   137                           	opt callstack 0
   138                           
   139                           ; 2 bytes @ 0x9
   140  00000A                     	ds	2
   141  00000C                     ??_main:
   142                           
   143                           ; 1 bytes @ 0xB
   144  00000C                     	ds	1
   145                           
   146 ;;
   147 ;;Main: autosize = 0, tempsize = 1, incstack = 0, save=0
   148 ;;
   149 ;; *************** function _main *****************
   150 ;; Defined at:
   151 ;;		line 49 in file "main.c"
   152 ;; Parameters:    Size  Location     Type
   153 ;;		None
   154 ;; Auto vars:     Size  Location     Type
   155 ;;		None
   156 ;; Return value:  Size  Location     Type
   157 ;;                  1    wreg      void 
   158 ;; Registers used:
   159 ;;		wreg, status,2, status,0, cstack
   160 ;; Tracked objects:
   161 ;;		On entry : 0/0
   162 ;;		On exit  : 0/0
   163 ;;		Unchanged: 0/0
   164 ;; Data sizes:     COMRAM   BANK0   BANK1   BANK2   BANK3   BANK4   BANK5   BANK6   BANK7   BANK8   BANK9  BANK10  BANK1
      +1  BANK12  BANK13  BANK14  BANK15
   165 ;;      Params:         0       0       0       0       0       0       0       0       0       0       0       0       
      +0       0       0       0       0
   166 ;;      Locals:         0       0       0       0       0       0       0       0       0       0       0       0       
      +0       0       0       0       0
   167 ;;      Temps:          1       0       0       0       0       0       0       0       0       0       0       0       
      +0       0       0       0       0
   168 ;;      Totals:         1       0       0       0       0       0       0       0       0       0       0       0       
      +0       0       0       0       0
   169 ;;Total ram usage:        1 bytes
   170 ;; Hardware stack levels required when called:   11
   171 ;; This function calls:
   172 ;;		_SYSTEM_Initialize
   173 ;; This function is called by:
   174 ;;		Startup code after reset
   175 ;; This function uses a non-reentrant model
   176 ;;
   177                           
   178                           	psect	text0
   179  003FCA                     __ptext0:
   180                           	opt callstack 0
   181  003FCA                     _main:
   182                           	opt callstack 20
   183  003FCA                     
   184                           ;main.c: 52:     SYSTEM_Initialize();
   185  003FCA  EC44  F01F         	call	_SYSTEM_Initialize	;wreg free
   186  003FCE                     
   187                           ;main.c: 58:     (INTCONbits.GIEH = 1);
   188  003FCE  8EF2               	bsf	242,7,c	;volatile
   189  003FD0                     
   190                           ;main.c: 61:     (INTCONbits.GIEL = 1);
   191  003FD0  8CF2               	bsf	242,6,c	;volatile
   192  003FD2                     
   193                           ;main.c: 64:     (INTCONbits.PEIE = 1);
   194  003FD2  8CF2               	bsf	242,6,c	;volatile
   195  003FD4                     l934:
   196                           
   197                           ;main.c: 70:     {;main.c: 72:         PORTCbits.RC0 =~ PORTCbits.RC0;
   198  003FD4  B082               	btfsc	130,0,c	;volatile
   199  003FD6  EFEF  F01F         	goto	u121
   200  003FDA  EFF2  F01F         	goto	u120
   201  003FDE                     u121:
   202  003FDE  0E01               	movlw	1
   203  003FE0  EFF3  F01F         	goto	u126
   204  003FE4                     u120:
   205  003FE4  0E00               	movlw	0
   206  003FE6                     u126:
   207  003FE6  0AFF               	xorlw	255
   208  003FE8  6E0C               	movwf	??_main^0,c
   209  003FEA  5082               	movf	130,w,c	;volatile
   210  003FEC  180C               	xorwf	??_main^0,w,c
   211  003FEE  0BFE               	andlw	-2
   212  003FF0  180C               	xorwf	??_main^0,w,c
   213  003FF2  6E82               	movwf	130,c	;volatile
   214  003FF4                     
   215                           ;main.c: 73:         _delay((unsigned long)((1)*(8000000/4000000.0)));
   216  003FF4  F000 F000          	nop2		;2 cycle nop
   217  003FF8  EFEA  F01F         	goto	l934
   218  003FFC  EF33  F000         	goto	start
   219  004000                     __end_of_main:
   220                           	opt callstack 0
   221                           
   222 ;; *************** function _SYSTEM_Initialize *****************
   223 ;; Defined at:
   224 ;;		line 50 in file "mcc_generated_files/mcc.c"
   225 ;; Parameters:    Size  Location     Type
   226 ;;		None
   227 ;; Auto vars:     Size  Location     Type
   228 ;;		None
   229 ;; Return value:  Size  Location     Type
   230 ;;                  1    wreg      void 
   231 ;; Registers used:
   232 ;;		wreg, status,2, status,0, cstack
   233 ;; Tracked objects:
   234 ;;		On entry : 0/0
   235 ;;		On exit  : 0/0
   236 ;;		Unchanged: 0/0
   237 ;; Data sizes:     COMRAM   BANK0   BANK1   BANK2   BANK3   BANK4   BANK5   BANK6   BANK7   BANK8   BANK9  BANK10  BANK1
      +1  BANK12  BANK13  BANK14  BANK15
   238 ;;      Params:         0       0       0       0       0       0       0       0       0       0       0       0       
      +0       0       0       0       0
   239 ;;      Locals:         0       0       0       0       0       0       0       0       0       0       0       0       
      +0       0       0       0       0
   240 ;;      Temps:          0       0       0       0       0       0       0       0       0       0       0       0       
      +0       0       0       0       0
   241 ;;      Totals:         0       0       0       0       0       0       0       0       0       0       0       0       
      +0       0       0       0       0
   242 ;;Total ram usage:        0 bytes
   243 ;; Hardware stack levels used:    1
   244 ;; Hardware stack levels required when called:   10
   245 ;; This function calls:
   246 ;;		_EXT_INT_Initialize
   247 ;;		_INTERRUPT_Initialize
   248 ;;		_OSCILLATOR_Initialize
   249 ;;		_PIN_MANAGER_Initialize
   250 ;; This function is called by:
   251 ;;		_main
   252 ;; This function uses a non-reentrant model
   253 ;;
   254                           
   255                           	psect	text1
   256  003E88                     __ptext1:
   257                           	opt callstack 0
   258  003E88                     _SYSTEM_Initialize:
   259                           	opt callstack 20
   260  003E88                     
   261                           ;mcc_generated_files/mcc.c: 53:     INTERRUPT_Initialize();
   262  003E88  EC23  F01F         	call	_INTERRUPT_Initialize	;wreg free
   263  003E8C                     
   264                           ;mcc_generated_files/mcc.c: 54:     PIN_MANAGER_Initialize();
   265  003E8C  ECB3  F01F         	call	_PIN_MANAGER_Initialize	;wreg free
   266  003E90                     
   267                           ;mcc_generated_files/mcc.c: 55:     OSCILLATOR_Initialize();
   268  003E90  EC38  F01F         	call	_OSCILLATOR_Initialize	;wreg free
   269  003E94                     
   270                           ;mcc_generated_files/mcc.c: 56:     EXT_INT_Initialize();
   271  003E94  EC72  F01F         	call	_EXT_INT_Initialize	;wreg free
   272  003E98  0012               	return		;funcret
   273  003E9A                     __end_of_SYSTEM_Initialize:
   274                           	opt callstack 0
   275                           
   276 ;; *************** function _PIN_MANAGER_Initialize *****************
   277 ;; Defined at:
   278 ;;		line 55 in file "mcc_generated_files/pin_manager.c"
   279 ;; Parameters:    Size  Location     Type
   280 ;;		None
   281 ;; Auto vars:     Size  Location     Type
   282 ;;		None
   283 ;; Return value:  Size  Location     Type
   284 ;;                  1    wreg      void 
   285 ;; Registers used:
   286 ;;		wreg, status,2
   287 ;; Tracked objects:
   288 ;;		On entry : 0/0
   289 ;;		On exit  : 0/0
   290 ;;		Unchanged: 0/0
   291 ;; Data sizes:     COMRAM   BANK0   BANK1   BANK2   BANK3   BANK4   BANK5   BANK6   BANK7   BANK8   BANK9  BANK10  BANK1
      +1  BANK12  BANK13  BANK14  BANK15
   292 ;;      Params:         0       0       0       0       0       0       0       0       0       0       0       0       
      +0       0       0       0       0
   293 ;;      Locals:         0       0       0       0       0       0       0       0       0       0       0       0       
      +0       0       0       0       0
   294 ;;      Temps:          0       0       0       0       0       0       0       0       0       0       0       0       
      +0       0       0       0       0
   295 ;;      Totals:         0       0       0       0       0       0       0       0       0       0       0       0       
      +0       0       0       0       0
   296 ;;Total ram usage:        0 bytes
   297 ;; Hardware stack levels used:    1
   298 ;; Hardware stack levels required when called:    8
   299 ;; This function calls:
   300 ;;		Nothing
   301 ;; This function is called by:
   302 ;;		_SYSTEM_Initialize
   303 ;; This function uses a non-reentrant model
   304 ;;
   305                           
   306                           	psect	text2
   307  003F66                     __ptext2:
   308                           	opt callstack 0
   309  003F66                     _PIN_MANAGER_Initialize:
   310                           	opt callstack 21
   311  003F66                     
   312                           ;mcc_generated_files/pin_manager.c: 60:     LATE = 0x00;
   313  003F66  0E00               	movlw	0
   314  003F68  6E8D               	movwf	141,c	;volatile
   315                           
   316                           ;mcc_generated_files/pin_manager.c: 61:     LATD = 0x00;
   317  003F6A  0E00               	movlw	0
   318  003F6C  6E8C               	movwf	140,c	;volatile
   319                           
   320                           ;mcc_generated_files/pin_manager.c: 62:     LATA = 0x00;
   321  003F6E  0E00               	movlw	0
   322  003F70  6E89               	movwf	137,c	;volatile
   323                           
   324                           ;mcc_generated_files/pin_manager.c: 63:     LATB = 0x00;
   325  003F72  0E00               	movlw	0
   326  003F74  6E8A               	movwf	138,c	;volatile
   327                           
   328                           ;mcc_generated_files/pin_manager.c: 64:     LATC = 0x00;
   329  003F76  0E00               	movlw	0
   330  003F78  6E8B               	movwf	139,c	;volatile
   331                           
   332                           ;mcc_generated_files/pin_manager.c: 69:     TRISE = 0x07;
   333  003F7A  0E07               	movlw	7
   334  003F7C  6E96               	movwf	150,c	;volatile
   335  003F7E                     
   336                           ;mcc_generated_files/pin_manager.c: 70:     TRISA = 0xFF;
   337  003F7E  6892               	setf	146,c	;volatile
   338  003F80                     
   339                           ;mcc_generated_files/pin_manager.c: 71:     TRISB = 0xFF;
   340  003F80  6893               	setf	147,c	;volatile
   341                           
   342                           ;mcc_generated_files/pin_manager.c: 72:     TRISC = 0xF8;
   343  003F82  0EF8               	movlw	248
   344  003F84  6E94               	movwf	148,c	;volatile
   345  003F86                     
   346                           ;mcc_generated_files/pin_manager.c: 73:     TRISD = 0xFF;
   347  003F86  6895               	setf	149,c	;volatile
   348  003F88                     
   349                           ;mcc_generated_files/pin_manager.c: 78:     ANSEL = 0xFF;
   350  003F88  687E               	setf	126,c	;volatile
   351                           
   352                           ;mcc_generated_files/pin_manager.c: 79:     ANSELH = 0x0B;
   353  003F8A  0E0B               	movlw	11
   354  003F8C  6E7F               	movwf	127,c	;volatile
   355                           
   356                           ;mcc_generated_files/pin_manager.c: 84:     WPUB = 0x00;
   357  003F8E  0E00               	movlw	0
   358  003F90  6E7C               	movwf	124,c	;volatile
   359  003F92                     
   360                           ;mcc_generated_files/pin_manager.c: 85:     INTCON2bits.nRBPU = 1;
   361  003F92  8EF1               	bsf	241,7,c	;volatile
   362  003F94  0012               	return		;funcret
   363  003F96                     __end_of_PIN_MANAGER_Initialize:
   364                           	opt callstack 0
   365                           
   366 ;; *************** function _OSCILLATOR_Initialize *****************
   367 ;; Defined at:
   368 ;;		line 59 in file "mcc_generated_files/mcc.c"
   369 ;; Parameters:    Size  Location     Type
   370 ;;		None
   371 ;; Auto vars:     Size  Location     Type
   372 ;;		None
   373 ;; Return value:  Size  Location     Type
   374 ;;                  1    wreg      void 
   375 ;; Registers used:
   376 ;;		wreg, status,2
   377 ;; Tracked objects:
   378 ;;		On entry : 0/0
   379 ;;		On exit  : 0/0
   380 ;;		Unchanged: 0/0
   381 ;; Data sizes:     COMRAM   BANK0   BANK1   BANK2   BANK3   BANK4   BANK5   BANK6   BANK7   BANK8   BANK9  BANK10  BANK1
      +1  BANK12  BANK13  BANK14  BANK15
   382 ;;      Params:         0       0       0       0       0       0       0       0       0       0       0       0       
      +0       0       0       0       0
   383 ;;      Locals:         0       0       0       0       0       0       0       0       0       0       0       0       
      +0       0       0       0       0
   384 ;;      Temps:          0       0       0       0       0       0       0       0       0       0       0       0       
      +0       0       0       0       0
   385 ;;      Totals:         0       0       0       0       0       0       0       0       0       0       0       0       
      +0       0       0       0       0
   386 ;;Total ram usage:        0 bytes
   387 ;; Hardware stack levels used:    1
   388 ;; Hardware stack levels required when called:    8
   389 ;; This function calls:
   390 ;;		Nothing
   391 ;; This function is called by:
   392 ;;		_SYSTEM_Initialize
   393 ;; This function uses a non-reentrant model
   394 ;;
   395                           
   396                           	psect	text3
   397  003E70                     __ptext3:
   398                           	opt callstack 0
   399  003E70                     _OSCILLATOR_Initialize:
   400                           	opt callstack 21
   401  003E70                     
   402                           ;mcc_generated_files/mcc.c: 62:     OSCCON = 0x30;
   403  003E70  0E30               	movlw	48
   404  003E72  6ED3               	movwf	211,c	;volatile
   405                           
   406                           ;mcc_generated_files/mcc.c: 64:     OSCTUNE = 0x00;
   407  003E74  0E00               	movlw	0
   408  003E76  6E9B               	movwf	155,c	;volatile
   409  003E78  0012               	return		;funcret
   410  003E7A                     __end_of_OSCILLATOR_Initialize:
   411                           	opt callstack 0
   412                           
   413 ;; *************** function _INTERRUPT_Initialize *****************
   414 ;; Defined at:
   415 ;;		line 52 in file "mcc_generated_files/interrupt_manager.c"
   416 ;; Parameters:    Size  Location     Type
   417 ;;		None
   418 ;; Auto vars:     Size  Location     Type
   419 ;;		None
   420 ;; Return value:  Size  Location     Type
   421 ;;                  1    wreg      void 
   422 ;; Registers used:
   423 ;;		None
   424 ;; Tracked objects:
   425 ;;		On entry : 0/0
   426 ;;		On exit  : 0/0
   427 ;;		Unchanged: 0/0
   428 ;; Data sizes:     COMRAM   BANK0   BANK1   BANK2   BANK3   BANK4   BANK5   BANK6   BANK7   BANK8   BANK9  BANK10  BANK1
      +1  BANK12  BANK13  BANK14  BANK15
   429 ;;      Params:         0       0       0       0       0       0       0       0       0       0       0       0       
      +0       0       0       0       0
   430 ;;      Locals:         0       0       0       0       0       0       0       0       0       0       0       0       
      +0       0       0       0       0
   431 ;;      Temps:          0       0       0       0       0       0       0       0       0       0       0       0       
      +0       0       0       0       0
   432 ;;      Totals:         0       0       0       0       0       0       0       0       0       0       0       0       
      +0       0       0       0       0
   433 ;;Total ram usage:        0 bytes
   434 ;; Hardware stack levels used:    1
   435 ;; Hardware stack levels required when called:    8
   436 ;; This function calls:
   437 ;;		Nothing
   438 ;; This function is called by:
   439 ;;		_SYSTEM_Initialize
   440 ;; This function uses a non-reentrant model
   441 ;;
   442                           
   443                           	psect	text4
   444  003E46                     __ptext4:
   445                           	opt callstack 0
   446  003E46                     _INTERRUPT_Initialize:
   447                           	opt callstack 21
   448  003E46                     
   449                           ;mcc_generated_files/interrupt_manager.c: 55:     RCONbits.IPEN = 1;
   450  003E46  8ED0               	bsf	208,7,c	;volatile
   451                           
   452                           ;mcc_generated_files/interrupt_manager.c: 63:     INTCON3bits.INT1IP = 0;
   453  003E48  9CF0               	bcf	240,6,c	;volatile
   454  003E4A  0012               	return		;funcret
   455  003E4C                     __end_of_INTERRUPT_Initialize:
   456                           	opt callstack 0
   457                           
   458 ;; *************** function _EXT_INT_Initialize *****************
   459 ;; Defined at:
   460 ;;		line 88 in file "mcc_generated_files/ext_int.c"
   461 ;; Parameters:    Size  Location     Type
   462 ;;		None
   463 ;; Auto vars:     Size  Location     Type
   464 ;;		None
   465 ;; Return value:  Size  Location     Type
   466 ;;                  1    wreg      void 
   467 ;; Registers used:
   468 ;;		wreg, status,2, status,0, cstack
   469 ;; Tracked objects:
   470 ;;		On entry : 0/0
   471 ;;		On exit  : 0/0
   472 ;;		Unchanged: 0/0
   473 ;; Data sizes:     COMRAM   BANK0   BANK1   BANK2   BANK3   BANK4   BANK5   BANK6   BANK7   BANK8   BANK9  BANK10  BANK1
      +1  BANK12  BANK13  BANK14  BANK15
   474 ;;      Params:         0       0       0       0       0       0       0       0       0       0       0       0       
      +0       0       0       0       0
   475 ;;      Locals:         0       0       0       0       0       0       0       0       0       0       0       0       
      +0       0       0       0       0
   476 ;;      Temps:          0       0       0       0       0       0       0       0       0       0       0       0       
      +0       0       0       0       0
   477 ;;      Totals:         0       0       0       0       0       0       0       0       0       0       0       0       
      +0       0       0       0       0
   478 ;;Total ram usage:        0 bytes
   479 ;; Hardware stack levels used:    1
   480 ;; Hardware stack levels required when called:    9
   481 ;; This function calls:
   482 ;;		_INT0_SetInterruptHandler
   483 ;;		_INT1_SetInterruptHandler
   484 ;; This function is called by:
   485 ;;		_SYSTEM_Initialize
   486 ;; This function uses a non-reentrant model
   487 ;;
   488                           
   489                           	psect	text5
   490  003EE4                     __ptext5:
   491                           	opt callstack 0
   492  003EE4                     _EXT_INT_Initialize:
   493                           	opt callstack 20
   494  003EE4                     
   495                           ;mcc_generated_files/ext_int.c: 93:     (INTCONbits.INT0IF = 0);
   496  003EE4  92F2               	bcf	242,1,c	;volatile
   497                           
   498                           ;mcc_generated_files/ext_int.c: 94:     (INTCON2bits.INTEDG0 = 1);
   499  003EE6  8CF1               	bsf	241,6,c	;volatile
   500  003EE8                     
   501                           ;mcc_generated_files/ext_int.c: 96:     INT0_SetInterruptHandler(INT0_DefaultInterruptHa
      +                          ndler);
   502  003EE8  0E9A               	movlw	low _INT0_DefaultInterruptHandler
   503  003EEA  6E0A               	movwf	INT0_SetInterruptHandler@InterruptHandler^0,c
   504  003EEC  0E3E               	movlw	high _INT0_DefaultInterruptHandler
   505  003EEE  6E0B               	movwf	(INT0_SetInterruptHandler@InterruptHandler+1)^0,c
   506  003EF0  EC2E  F01F         	call	_INT0_SetInterruptHandler	;wreg free
   507  003EF4                     
   508                           ;mcc_generated_files/ext_int.c: 97:     (INTCONbits.INT0IE = 1);
   509  003EF4  88F2               	bsf	242,4,c	;volatile
   510  003EF6                     
   511                           ;mcc_generated_files/ext_int.c: 102:     (INTCON3bits.INT1IF = 0);
   512  003EF6  90F0               	bcf	240,0,c	;volatile
   513  003EF8                     
   514                           ;mcc_generated_files/ext_int.c: 103:     (INTCON2bits.INTEDG1 = 1);
   515  003EF8  8AF1               	bsf	241,5,c	;volatile
   516                           
   517                           ;mcc_generated_files/ext_int.c: 105:     INT1_SetInterruptHandler(INT1_DefaultInterruptH
      +                          andler);
   518  003EFA  0EBE               	movlw	low _INT1_DefaultInterruptHandler
   519  003EFC  6E0A               	movwf	INT1_SetInterruptHandler@InterruptHandler^0,c
   520  003EFE  0E3E               	movlw	high _INT1_DefaultInterruptHandler
   521  003F00  6E0B               	movwf	(INT1_SetInterruptHandler@InterruptHandler+1)^0,c
   522  003F02  EC33  F01F         	call	_INT1_SetInterruptHandler	;wreg free
   523  003F06                     
   524                           ;mcc_generated_files/ext_int.c: 106:     (INTCON3bits.INT1IE = 1);
   525  003F06  86F0               	bsf	240,3,c	;volatile
   526  003F08  0012               	return		;funcret
   527  003F0A                     __end_of_EXT_INT_Initialize:
   528                           	opt callstack 0
   529                           
   530 ;; *************** function _INT1_SetInterruptHandler *****************
   531 ;; Defined at:
   532 ;;		line 78 in file "mcc_generated_files/ext_int.c"
   533 ;; Parameters:    Size  Location     Type
   534 ;;  InterruptHan    2    9[COMRAM] PTR FTN()void 
   535 ;;		 -> INT1_DefaultInterruptHandler(1), 
   536 ;; Auto vars:     Size  Location     Type
   537 ;;		None
   538 ;; Return value:  Size  Location     Type
   539 ;;                  1    wreg      void 
   540 ;; Registers used:
   541 ;;		wreg, status,2, status,0
   542 ;; Tracked objects:
   543 ;;		On entry : 0/0
   544 ;;		On exit  : 0/0
   545 ;;		Unchanged: 0/0
   546 ;; Data sizes:     COMRAM   BANK0   BANK1   BANK2   BANK3   BANK4   BANK5   BANK6   BANK7   BANK8   BANK9  BANK10  BANK1
      +1  BANK12  BANK13  BANK14  BANK15
   547 ;;      Params:         2       0       0       0       0       0       0       0       0       0       0       0       
      +0       0       0       0       0
   548 ;;      Locals:         0       0       0       0       0       0       0       0       0       0       0       0       
      +0       0       0       0       0
   549 ;;      Temps:          0       0       0       0       0       0       0       0       0       0       0       0       
      +0       0       0       0       0
   550 ;;      Totals:         2       0       0       0       0       0       0       0       0       0       0       0       
      +0       0       0       0       0
   551 ;;Total ram usage:        2 bytes
   552 ;; Hardware stack levels used:    1
   553 ;; Hardware stack levels required when called:    8
   554 ;; This function calls:
   555 ;;		Nothing
   556 ;; This function is called by:
   557 ;;		_EXT_INT_Initialize
   558 ;; This function uses a non-reentrant model
   559 ;;
   560                           
   561                           	psect	text6
   562  003E66                     __ptext6:
   563                           	opt callstack 0
   564  003E66                     _INT1_SetInterruptHandler:
   565                           	opt callstack 20
   566  003E66                     
   567                           ;mcc_generated_files/ext_int.c: 79:     INT1_InterruptHandler = InterruptHandler;
   568  003E66  C00A  F00D         	movff	INT1_SetInterruptHandler@InterruptHandler,_INT1_InterruptHandler
   569  003E6A  C00B  F00E         	movff	INT1_SetInterruptHandler@InterruptHandler+1,_INT1_InterruptHandler+1
   570  003E6E  0012               	return		;funcret
   571  003E70                     __end_of_INT1_SetInterruptHandler:
   572                           	opt callstack 0
   573                           
   574 ;; *************** function _INT0_SetInterruptHandler *****************
   575 ;; Defined at:
   576 ;;		line 51 in file "mcc_generated_files/ext_int.c"
   577 ;; Parameters:    Size  Location     Type
   578 ;;  InterruptHan    2    9[COMRAM] PTR FTN()void 
   579 ;;		 -> INT0_DefaultInterruptHandler(1), 
   580 ;; Auto vars:     Size  Location     Type
   581 ;;		None
   582 ;; Return value:  Size  Location     Type
   583 ;;                  1    wreg      void 
   584 ;; Registers used:
   585 ;;		wreg, status,2, status,0
   586 ;; Tracked objects:
   587 ;;		On entry : 0/0
   588 ;;		On exit  : 0/0
   589 ;;		Unchanged: 0/0
   590 ;; Data sizes:     COMRAM   BANK0   BANK1   BANK2   BANK3   BANK4   BANK5   BANK6   BANK7   BANK8   BANK9  BANK10  BANK1
      +1  BANK12  BANK13  BANK14  BANK15
   591 ;;      Params:         2       0       0       0       0       0       0       0       0       0       0       0       
      +0       0       0       0       0
   592 ;;      Locals:         0       0       0       0       0       0       0       0       0       0       0       0       
      +0       0       0       0       0
   593 ;;      Temps:          0       0       0       0       0       0       0       0       0       0       0       0       
      +0       0       0       0       0
   594 ;;      Totals:         2       0       0       0       0       0       0       0       0       0       0       0       
      +0       0       0       0       0
   595 ;;Total ram usage:        2 bytes
   596 ;; Hardware stack levels used:    1
   597 ;; Hardware stack levels required when called:    8
   598 ;; This function calls:
   599 ;;		Nothing
   600 ;; This function is called by:
   601 ;;		_EXT_INT_Initialize
   602 ;; This function uses a non-reentrant model
   603 ;;
   604                           
   605                           	psect	text7
   606  003E5C                     __ptext7:
   607                           	opt callstack 0
   608  003E5C                     _INT0_SetInterruptHandler:
   609                           	opt callstack 20
   610  003E5C                     
   611                           ;mcc_generated_files/ext_int.c: 52:     INT0_InterruptHandler = InterruptHandler;
   612  003E5C  C00A  F00F         	movff	INT0_SetInterruptHandler@InterruptHandler,_INT0_InterruptHandler
   613  003E60  C00B  F010         	movff	INT0_SetInterruptHandler@InterruptHandler+1,_INT0_InterruptHandler+1
   614  003E64  0012               	return		;funcret
   615  003E66                     __end_of_INT0_SetInterruptHandler:
   616                           	opt callstack 0
   617                           
   618 ;; *************** function _INTERRUPT_InterruptManagerLow *****************
   619 ;; Defined at:
   620 ;;		line 76 in file "mcc_generated_files/interrupt_manager.c"
   621 ;; Parameters:    Size  Location     Type
   622 ;;		None
   623 ;; Auto vars:     Size  Location     Type
   624 ;;		None
   625 ;; Return value:  Size  Location     Type
   626 ;;                  1    wreg      void 
   627 ;; Registers used:
   628 ;;		wreg, status,2, status,0, pclath, tosl, cstack
   629 ;; Tracked objects:
   630 ;;		On entry : 0/0
   631 ;;		On exit  : 0/0
   632 ;;		Unchanged: 0/0
   633 ;; Data sizes:     COMRAM   BANK0   BANK1   BANK2   BANK3   BANK4   BANK5   BANK6   BANK7   BANK8   BANK9  BANK10  BANK1
      +1  BANK12  BANK13  BANK14  BANK15
   634 ;;      Params:         0       0       0       0       0       0       0       0       0       0       0       0       
      +0       0       0       0       0
   635 ;;      Locals:         0       0       0       0       0       0       0       0       0       0       0       0       
      +0       0       0       0       0
   636 ;;      Temps:          5       0       0       0       0       0       0       0       0       0       0       0       
      +0       0       0       0       0
   637 ;;      Totals:         5       0       0       0       0       0       0       0       0       0       0       0       
      +0       0       0       0       0
   638 ;;Total ram usage:        5 bytes
   639 ;; Hardware stack levels used:    1
   640 ;; Hardware stack levels required when called:    7
   641 ;; This function calls:
   642 ;;		_INT1_ISR
   643 ;; This function is called by:
   644 ;;		Interrupt level 1
   645 ;; This function uses a non-reentrant model
   646 ;;
   647                           
   648                           	psect	intcodelo
   649  000018                     __pintcodelo:
   650                           	opt callstack 0
   651  000018                     _INTERRUPT_InterruptManagerLow:
   652                           	opt callstack 20
   653                           
   654                           ;incstack = 0
   655  000018  8011               	bsf	int$flags,0,c	;set compiler interrupt flag (level 1)
   656  00001A  CFD8 F005          	movff	status,??_INTERRUPT_InterruptManagerLow
   657  00001E  CFE8 F006          	movff	wreg,??_INTERRUPT_InterruptManagerLow+1
   658  000022  CFE0 F007          	movff	bsr,??_INTERRUPT_InterruptManagerLow+2
   659  000026  CFFA F008          	movff	pclath,??_INTERRUPT_InterruptManagerLow+3
   660  00002A  CFFB F009          	movff	pclatu,??_INTERRUPT_InterruptManagerLow+4
   661  00002E                     
   662                           ;mcc_generated_files/interrupt_manager.c: 79:     if(INTCON3bits.INT1IE == 1 && INTCON3b
      +                          its.INT1IF == 1)
   663  00002E  A6F0               	btfss	240,3,c	;volatile
   664  000030  EF1C  F000         	goto	i1u9_21
   665  000034  EF1E  F000         	goto	i1u9_20
   666  000038                     i1u9_21:
   667  000038  EF27  F000         	goto	i1l79
   668  00003C                     i1u9_20:
   669  00003C  A0F0               	btfss	240,0,c	;volatile
   670  00003E  EF23  F000         	goto	i1u10_21
   671  000042  EF25  F000         	goto	i1u10_20
   672  000046                     i1u10_21:
   673  000046  EF27  F000         	goto	i1l79
   674  00004A                     i1u10_20:
   675  00004A                     
   676                           ;mcc_generated_files/interrupt_manager.c: 80:     {;mcc_generated_files/interrupt_manage
      +                          r.c: 81:         INT1_ISR();
   677  00004A  EC2A  F01F         	call	_INT1_ISR	;wreg free
   678  00004E                     i1l79:
   679  00004E  C009  FFFB         	movff	??_INTERRUPT_InterruptManagerLow+4,pclatu
   680  000052  C008  FFFA         	movff	??_INTERRUPT_InterruptManagerLow+3,pclath
   681  000056  C007  FFE0         	movff	??_INTERRUPT_InterruptManagerLow+2,bsr
   682  00005A  C006  FFE8         	movff	??_INTERRUPT_InterruptManagerLow+1,wreg
   683  00005E  C005  FFD8         	movff	??_INTERRUPT_InterruptManagerLow,status
   684  000062  9011               	bcf	int$flags,0,c	;clear compiler interrupt flag (level 1)
   685  000064  0010               	retfie	
   686  000066                     __end_of_INTERRUPT_InterruptManagerLow:
   687                           	opt callstack 0
   688                           
   689 ;; *************** function _INT1_ISR *****************
   690 ;; Defined at:
   691 ;;		line 60 in file "mcc_generated_files/ext_int.c"
   692 ;; Parameters:    Size  Location     Type
   693 ;;		None
   694 ;; Auto vars:     Size  Location     Type
   695 ;;		None
   696 ;; Return value:  Size  Location     Type
   697 ;;                  1    wreg      void 
   698 ;; Registers used:
   699 ;;		wreg, status,2, status,0, pclath, tosl, cstack
   700 ;; Tracked objects:
   701 ;;		On entry : 0/0
   702 ;;		On exit  : 0/0
   703 ;;		Unchanged: 0/0
   704 ;; Data sizes:     COMRAM   BANK0   BANK1   BANK2   BANK3   BANK4   BANK5   BANK6   BANK7   BANK8   BANK9  BANK10  BANK1
      +1  BANK12  BANK13  BANK14  BANK15
   705 ;;      Params:         0       0       0       0       0       0       0       0       0       0       0       0       
      +0       0       0       0       0
   706 ;;      Locals:         0       0       0       0       0       0       0       0       0       0       0       0       
      +0       0       0       0       0
   707 ;;      Temps:          0       0       0       0       0       0       0       0       0       0       0       0       
      +0       0       0       0       0
   708 ;;      Totals:         0       0       0       0       0       0       0       0       0       0       0       0       
      +0       0       0       0       0
   709 ;;Total ram usage:        0 bytes
   710 ;; Hardware stack levels used:    1
   711 ;; Hardware stack levels required when called:    6
   712 ;; This function calls:
   713 ;;		_INT1_CallBack
   714 ;; This function is called by:
   715 ;;		_INTERRUPT_InterruptManagerLow
   716 ;; This function uses a non-reentrant model
   717 ;;
   718                           
   719                           	psect	text9
   720  003E54                     __ptext9:
   721                           	opt callstack 0
   722  003E54                     _INT1_ISR:
   723                           	opt callstack 20
   724  003E54                     
   725                           ;mcc_generated_files/ext_int.c: 62:     (INTCON3bits.INT1IF = 0);
   726  003E54  90F0               	bcf	240,0,c	;volatile
   727  003E56                     
   728                           ;mcc_generated_files/ext_int.c: 65:     INT1_CallBack();
   729  003E56  EC9C  F01F         	call	_INT1_CallBack	;wreg free
   730  003E5A  0012               	return		;funcret
   731  003E5C                     __end_of_INT1_ISR:
   732                           	opt callstack 0
   733                           
   734 ;; *************** function _INT1_CallBack *****************
   735 ;; Defined at:
   736 ;;		line 69 in file "mcc_generated_files/ext_int.c"
   737 ;; Parameters:    Size  Location     Type
   738 ;;		None
   739 ;; Auto vars:     Size  Location     Type
   740 ;;		None
   741 ;; Return value:  Size  Location     Type
   742 ;;                  1    wreg      void 
   743 ;; Registers used:
   744 ;;		wreg, status,2, status,0, pclath, tosl, cstack
   745 ;; Tracked objects:
   746 ;;		On entry : 0/0
   747 ;;		On exit  : 0/0
   748 ;;		Unchanged: 0/0
   749 ;; Data sizes:     COMRAM   BANK0   BANK1   BANK2   BANK3   BANK4   BANK5   BANK6   BANK7   BANK8   BANK9  BANK10  BANK1
      +1  BANK12  BANK13  BANK14  BANK15
   750 ;;      Params:         0       0       0       0       0       0       0       0       0       0       0       0       
      +0       0       0       0       0
   751 ;;      Locals:         0       0       0       0       0       0       0       0       0       0       0       0       
      +0       0       0       0       0
   752 ;;      Temps:          0       0       0       0       0       0       0       0       0       0       0       0       
      +0       0       0       0       0
   753 ;;      Totals:         0       0       0       0       0       0       0       0       0       0       0       0       
      +0       0       0       0       0
   754 ;;Total ram usage:        0 bytes
   755 ;; Hardware stack levels used:    1
   756 ;; Hardware stack levels required when called:    5
   757 ;; This function calls:
   758 ;;		Absolute function
   759 ;;		_INT1_DefaultInterruptHandler
   760 ;; This function is called by:
   761 ;;		_INT1_ISR
   762 ;; This function uses a non-reentrant model
   763 ;;
   764                           
   765                           	psect	text10
   766  003F38                     __ptext10:
   767                           	opt callstack 0
   768  003F38                     _INT1_CallBack:
   769                           	opt callstack 20
   770  003F38                     
   771                           ;mcc_generated_files/ext_int.c: 72:     if(INT1_InterruptHandler)
   772  003F38  500D               	movf	_INT1_InterruptHandler^0,w,c
   773  003F3A  100E               	iorwf	(_INT1_InterruptHandler+1)^0,w,c
   774  003F3C  B4D8               	btfsc	status,2,c
   775  003F3E  EFA3  F01F         	goto	i1u5_21
   776  003F42  EFA5  F01F         	goto	i1u5_20
   777  003F46                     i1u5_21:
   778  003F46  EFB2  F01F         	goto	i1l115
   779  003F4A                     i1u5_20:
   780  003F4A                     
   781                           ;mcc_generated_files/ext_int.c: 73:     {;mcc_generated_files/ext_int.c: 74:         INT
      +                          1_InterruptHandler();
   782  003F4A  D802               	call	i1u6_28
   783  003F4C  EFB2  F01F         	goto	i1u6_29
   784  003F50                     i1u6_28:
   785  003F50  0005               	push	
   786  003F52  6EFA               	movwf	pclath,c
   787  003F54  500D               	movf	_INT1_InterruptHandler^0,w,c
   788  003F56  6EFD               	movwf	tosl,c
   789  003F58  500E               	movf	(_INT1_InterruptHandler+1)^0,w,c
   790  003F5A  6EFE               	movwf	tosh,c
   791  003F5C  50F8               	movf	tblptru,w,c
   792  003F5E  6EFF               	movwf	tosu,c
   793  003F60  50FA               	movf	pclath,w,c
   794  003F62  0012               	return		;indir
   795  003F64                     i1u6_29:
   796  003F64                     i1l115:
   797  003F64  0012               	return		;funcret
   798  003F66                     __end_of_INT1_CallBack:
   799                           	opt callstack 0
   800                           
   801 ;; *************** function _INT1_DefaultInterruptHandler *****************
   802 ;; Defined at:
   803 ;;		line 82 in file "mcc_generated_files/ext_int.c"
   804 ;; Parameters:    Size  Location     Type
   805 ;;		None
   806 ;; Auto vars:     Size  Location     Type
   807 ;;		None
   808 ;; Return value:  Size  Location     Type
   809 ;;                  1    wreg      void 
   810 ;; Registers used:
   811 ;;		wreg, status,2, status,0
   812 ;; Tracked objects:
   813 ;;		On entry : 0/0
   814 ;;		On exit  : 0/0
   815 ;;		Unchanged: 0/0
   816 ;; Data sizes:     COMRAM   BANK0   BANK1   BANK2   BANK3   BANK4   BANK5   BANK6   BANK7   BANK8   BANK9  BANK10  BANK1
      +1  BANK12  BANK13  BANK14  BANK15
   817 ;;      Params:         0       0       0       0       0       0       0       0       0       0       0       0       
      +0       0       0       0       0
   818 ;;      Locals:         0       0       0       0       0       0       0       0       0       0       0       0       
      +0       0       0       0       0
   819 ;;      Temps:          1       0       0       0       0       0       0       0       0       0       0       0       
      +0       0       0       0       0
   820 ;;      Totals:         1       0       0       0       0       0       0       0       0       0       0       0       
      +0       0       0       0       0
   821 ;;Total ram usage:        1 bytes
   822 ;; Hardware stack levels used:    1
   823 ;; Hardware stack levels required when called:    4
   824 ;; This function calls:
   825 ;;		Nothing
   826 ;; This function is called by:
   827 ;;		_EXT_INT_Initialize
   828 ;;		_INT1_CallBack
   829 ;; This function uses a non-reentrant model
   830 ;;
   831                           
   832                           	psect	text11
   833  003EBE                     __ptext11:
   834                           	opt callstack 0
   835  003EBE                     _INT1_DefaultInterruptHandler:
   836                           	opt callstack 20
   837  003EBE                     
   838                           ;mcc_generated_files/ext_int.c: 84:     PORTCbits.RC2 =~ PORTCbits.RC2;
   839  003EBE  B482               	btfsc	130,2,c	;volatile
   840  003EC0  EF64  F01F         	goto	i1u2_21
   841  003EC4  EF67  F01F         	goto	i1u2_20
   842  003EC8                     i1u2_21:
   843  003EC8  0E01               	movlw	1
   844  003ECA  EF68  F01F         	goto	i1u2_26
   845  003ECE                     i1u2_20:
   846  003ECE  0E00               	movlw	0
   847  003ED0                     i1u2_26:
   848  003ED0  0AFF               	xorlw	255
   849  003ED2  6E04               	movwf	??_INT1_DefaultInterruptHandler^0,c
   850  003ED4  4604               	rlncf	??_INT1_DefaultInterruptHandler^0,f,c
   851  003ED6  4604               	rlncf	??_INT1_DefaultInterruptHandler^0,f,c
   852  003ED8  5082               	movf	130,w,c	;volatile
   853  003EDA  1804               	xorwf	??_INT1_DefaultInterruptHandler^0,w,c
   854  003EDC  0BFB               	andlw	-5
   855  003EDE  1804               	xorwf	??_INT1_DefaultInterruptHandler^0,w,c
   856  003EE0  6E82               	movwf	130,c	;volatile
   857  003EE2  0012               	return		;funcret
   858  003EE4                     __end_of_INT1_DefaultInterruptHandler:
   859                           	opt callstack 0
   860                           
   861 ;; *************** function _INTERRUPT_InterruptManagerHigh *****************
   862 ;; Defined at:
   863 ;;		line 67 in file "mcc_generated_files/interrupt_manager.c"
   864 ;; Parameters:    Size  Location     Type
   865 ;;		None
   866 ;; Auto vars:     Size  Location     Type
   867 ;;		None
   868 ;; Return value:  Size  Location     Type
   869 ;;                  1    wreg      void 
   870 ;; Registers used:
   871 ;;		wreg, status,2, status,0, pclath, tosl, cstack
   872 ;; Tracked objects:
   873 ;;		On entry : 0/0
   874 ;;		On exit  : 0/0
   875 ;;		Unchanged: 0/0
   876 ;; Data sizes:     COMRAM   BANK0   BANK1   BANK2   BANK3   BANK4   BANK5   BANK6   BANK7   BANK8   BANK9  BANK10  BANK1
      +1  BANK12  BANK13  BANK14  BANK15
   877 ;;      Params:         0       0       0       0       0       0       0       0       0       0       0       0       
      +0       0       0       0       0
   878 ;;      Locals:         0       0       0       0       0       0       0       0       0       0       0       0       
      +0       0       0       0       0
   879 ;;      Temps:          2       0       0       0       0       0       0       0       0       0       0       0       
      +0       0       0       0       0
   880 ;;      Totals:         2       0       0       0       0       0       0       0       0       0       0       0       
      +0       0       0       0       0
   881 ;;Total ram usage:        2 bytes
   882 ;; Hardware stack levels used:    1
   883 ;; Hardware stack levels required when called:    3
   884 ;; This function calls:
   885 ;;		_INT0_ISR
   886 ;; This function is called by:
   887 ;;		Interrupt level 2
   888 ;; This function uses a non-reentrant model
   889 ;;
   890                           
   891                           	psect	intcode
   892  000008                     __pintcode:
   893                           	opt callstack 0
   894  000008                     _INTERRUPT_InterruptManagerHigh:
   895                           	opt callstack 20
   896                           
   897                           ;incstack = 0
   898  000008  8211               	bsf	int$flags,1,c	;set compiler interrupt flag (level 2)
   899  00000A  EFCB  F01F         	goto	int_func
   900                           
   901                           	psect	intcode_body
   902  003F96                     __pintcode_body:
   903                           	opt callstack 20
   904  003F96                     int_func:
   905                           	opt callstack 20
   906  003F96  CFFA F002          	movff	pclath,??_INTERRUPT_InterruptManagerHigh
   907  003F9A  CFFB F003          	movff	pclatu,??_INTERRUPT_InterruptManagerHigh+1
   908  003F9E                     
   909                           ;mcc_generated_files/interrupt_manager.c: 70:     if(INTCONbits.INT0IE == 1 && INTCONbit
      +                          s.INT0IF == 1)
   910  003F9E  A8F2               	btfss	242,4,c	;volatile
   911  003FA0  EFD4  F01F         	goto	i2u7_41
   912  003FA4  EFD6  F01F         	goto	i2u7_40
   913  003FA8                     i2u7_41:
   914  003FA8  EFDF  F01F         	goto	i2l73
   915  003FAC                     i2u7_40:
   916  003FAC  A2F2               	btfss	242,1,c	;volatile
   917  003FAE  EFDB  F01F         	goto	i2u8_41
   918  003FB2  EFDD  F01F         	goto	i2u8_40
   919  003FB6                     i2u8_41:
   920  003FB6  EFDF  F01F         	goto	i2l73
   921  003FBA                     i2u8_40:
   922  003FBA                     
   923                           ;mcc_generated_files/interrupt_manager.c: 71:     {;mcc_generated_files/interrupt_manage
      +                          r.c: 72:         INT0_ISR();
   924  003FBA  EC26  F01F         	call	_INT0_ISR	;wreg free
   925  003FBE                     i2l73:
   926  003FBE  C003  FFFB         	movff	??_INTERRUPT_InterruptManagerHigh+1,pclatu
   927  003FC2  C002  FFFA         	movff	??_INTERRUPT_InterruptManagerHigh,pclath
   928  003FC6  9211               	bcf	int$flags,1,c	;clear compiler interrupt flag (level 2)
   929  003FC8  0011               	retfie		f
   930  003FCA                     __end_of_INTERRUPT_InterruptManagerHigh:
   931                           	opt callstack 0
   932                           
   933 ;; *************** function _INT0_ISR *****************
   934 ;; Defined at:
   935 ;;		line 33 in file "mcc_generated_files/ext_int.c"
   936 ;; Parameters:    Size  Location     Type
   937 ;;		None
   938 ;; Auto vars:     Size  Location     Type
   939 ;;		None
   940 ;; Return value:  Size  Location     Type
   941 ;;                  1    wreg      void 
   942 ;; Registers used:
   943 ;;		wreg, status,2, status,0, pclath, tosl, cstack
   944 ;; Tracked objects:
   945 ;;		On entry : 0/0
   946 ;;		On exit  : 0/0
   947 ;;		Unchanged: 0/0
   948 ;; Data sizes:     COMRAM   BANK0   BANK1   BANK2   BANK3   BANK4   BANK5   BANK6   BANK7   BANK8   BANK9  BANK10  BANK1
      +1  BANK12  BANK13  BANK14  BANK15
   949 ;;      Params:         0       0       0       0       0       0       0       0       0       0       0       0       
      +0       0       0       0       0
   950 ;;      Locals:         0       0       0       0       0       0       0       0       0       0       0       0       
      +0       0       0       0       0
   951 ;;      Temps:          0       0       0       0       0       0       0       0       0       0       0       0       
      +0       0       0       0       0
   952 ;;      Totals:         0       0       0       0       0       0       0       0       0       0       0       0       
      +0       0       0       0       0
   953 ;;Total ram usage:        0 bytes
   954 ;; Hardware stack levels used:    1
   955 ;; Hardware stack levels required when called:    2
   956 ;; This function calls:
   957 ;;		_INT0_CallBack
   958 ;; This function is called by:
   959 ;;		_INTERRUPT_InterruptManagerHigh
   960 ;; This function uses a non-reentrant model
   961 ;;
   962                           
   963                           	psect	text13
   964  003E4C                     __ptext13:
   965                           	opt callstack 0
   966  003E4C                     _INT0_ISR:
   967                           	opt callstack 20
   968  003E4C                     
   969                           ;mcc_generated_files/ext_int.c: 35:     (INTCONbits.INT0IF = 0);
   970  003E4C  92F2               	bcf	242,1,c	;volatile
   971  003E4E                     
   972                           ;mcc_generated_files/ext_int.c: 38:     INT0_CallBack();
   973  003E4E  EC85  F01F         	call	_INT0_CallBack	;wreg free
   974  003E52  0012               	return		;funcret
   975  003E54                     __end_of_INT0_ISR:
   976                           	opt callstack 0
   977                           
   978 ;; *************** function _INT0_CallBack *****************
   979 ;; Defined at:
   980 ;;		line 42 in file "mcc_generated_files/ext_int.c"
   981 ;; Parameters:    Size  Location     Type
   982 ;;		None
   983 ;; Auto vars:     Size  Location     Type
   984 ;;		None
   985 ;; Return value:  Size  Location     Type
   986 ;;                  1    wreg      void 
   987 ;; Registers used:
   988 ;;		wreg, status,2, status,0, pclath, tosl, cstack
   989 ;; Tracked objects:
   990 ;;		On entry : 0/0
   991 ;;		On exit  : 0/0
   992 ;;		Unchanged: 0/0
   993 ;; Data sizes:     COMRAM   BANK0   BANK1   BANK2   BANK3   BANK4   BANK5   BANK6   BANK7   BANK8   BANK9  BANK10  BANK1
      +1  BANK12  BANK13  BANK14  BANK15
   994 ;;      Params:         0       0       0       0       0       0       0       0       0       0       0       0       
      +0       0       0       0       0
   995 ;;      Locals:         0       0       0       0       0       0       0       0       0       0       0       0       
      +0       0       0       0       0
   996 ;;      Temps:          0       0       0       0       0       0       0       0       0       0       0       0       
      +0       0       0       0       0
   997 ;;      Totals:         0       0       0       0       0       0       0       0       0       0       0       0       
      +0       0       0       0       0
   998 ;;Total ram usage:        0 bytes
   999 ;; Hardware stack levels used:    1
  1000 ;; Hardware stack levels required when called:    1
  1001 ;; This function calls:
  1002 ;;		Absolute function
  1003 ;;		_INT0_DefaultInterruptHandler
  1004 ;; This function is called by:
  1005 ;;		_INT0_ISR
  1006 ;; This function uses a non-reentrant model
  1007 ;;
  1008                           
  1009                           	psect	text14
  1010  003F0A                     __ptext14:
  1011                           	opt callstack 0
  1012  003F0A                     _INT0_CallBack:
  1013                           	opt callstack 20
  1014  003F0A                     
  1015                           ;mcc_generated_files/ext_int.c: 45:     if(INT0_InterruptHandler)
  1016  003F0A  500F               	movf	_INT0_InterruptHandler^0,w,c
  1017  003F0C  1010               	iorwf	(_INT0_InterruptHandler+1)^0,w,c
  1018  003F0E  B4D8               	btfsc	status,2,c
  1019  003F10  EF8C  F01F         	goto	i2u3_41
  1020  003F14  EF8E  F01F         	goto	i2u3_40
  1021  003F18                     i2u3_41:
  1022  003F18  EF9B  F01F         	goto	i2l102
  1023  003F1C                     i2u3_40:
  1024  003F1C                     
  1025                           ;mcc_generated_files/ext_int.c: 46:     {;mcc_generated_files/ext_int.c: 47:         INT
      +                          0_InterruptHandler();
  1026  003F1C  D802               	call	i2u4_48
  1027  003F1E  EF9B  F01F         	goto	i2u4_49
  1028  003F22                     i2u4_48:
  1029  003F22  0005               	push	
  1030  003F24  6EFA               	movwf	pclath,c
  1031  003F26  500F               	movf	_INT0_InterruptHandler^0,w,c
  1032  003F28  6EFD               	movwf	tosl,c
  1033  003F2A  5010               	movf	(_INT0_InterruptHandler+1)^0,w,c
  1034  003F2C  6EFE               	movwf	tosh,c
  1035  003F2E  50F8               	movf	tblptru,w,c
  1036  003F30  6EFF               	movwf	tosu,c
  1037  003F32  50FA               	movf	pclath,w,c
  1038  003F34  0012               	return		;indir
  1039  003F36                     i2u4_49:
  1040  003F36                     i2l102:
  1041  003F36  0012               	return		;funcret
  1042  003F38                     __end_of_INT0_CallBack:
  1043                           	opt callstack 0
  1044                           
  1045 ;; *************** function _INT0_DefaultInterruptHandler *****************
  1046 ;; Defined at:
  1047 ;;		line 55 in file "mcc_generated_files/ext_int.c"
  1048 ;; Parameters:    Size  Location     Type
  1049 ;;		None
  1050 ;; Auto vars:     Size  Location     Type
  1051 ;;		None
  1052 ;; Return value:  Size  Location     Type
  1053 ;;                  1    wreg      void 
  1054 ;; Registers used:
  1055 ;;		wreg, status,2, status,0
  1056 ;; Tracked objects:
  1057 ;;		On entry : 0/0
  1058 ;;		On exit  : 0/0
  1059 ;;		Unchanged: 0/0
  1060 ;; Data sizes:     COMRAM   BANK0   BANK1   BANK2   BANK3   BANK4   BANK5   BANK6   BANK7   BANK8   BANK9  BANK10  BANK1
      +1  BANK12  BANK13  BANK14  BANK15
  1061 ;;      Params:         0       0       0       0       0       0       0       0       0       0       0       0       
      +0       0       0       0       0
  1062 ;;      Locals:         0       0       0       0       0       0       0       0       0       0       0       0       
      +0       0       0       0       0
  1063 ;;      Temps:          1       0       0       0       0       0       0       0       0       0       0       0       
      +0       0       0       0       0
  1064 ;;      Totals:         1       0       0       0       0       0       0       0       0       0       0       0       
      +0       0       0       0       0
  1065 ;;Total ram usage:        1 bytes
  1066 ;; Hardware stack levels used:    1
  1067 ;; This function calls:
  1068 ;;		Nothing
  1069 ;; This function is called by:
  1070 ;;		_EXT_INT_Initialize
  1071 ;;		_INT0_CallBack
  1072 ;; This function uses a non-reentrant model
  1073 ;;
  1074                           
  1075                           	psect	text15
  1076  003E9A                     __ptext15:
  1077                           	opt callstack 0
  1078  003E9A                     _INT0_DefaultInterruptHandler:
  1079                           	opt callstack 20
  1080  003E9A                     
  1081                           ;mcc_generated_files/ext_int.c: 57:     PORTCbits.RC1 =~ PORTCbits.RC1;
  1082  003E9A  B282               	btfsc	130,1,c	;volatile
  1083  003E9C  EF52  F01F         	goto	i2u1_41
  1084  003EA0  EF55  F01F         	goto	i2u1_40
  1085  003EA4                     i2u1_41:
  1086  003EA4  0E01               	movlw	1
  1087  003EA6  EF56  F01F         	goto	i2u1_46
  1088  003EAA                     i2u1_40:
  1089  003EAA  0E00               	movlw	0
  1090  003EAC                     i2u1_46:
  1091  003EAC  0AFF               	xorlw	255
  1092  003EAE  6E01               	movwf	??_INT0_DefaultInterruptHandler^0,c
  1093  003EB0  4601               	rlncf	??_INT0_DefaultInterruptHandler^0,f,c
  1094  003EB2  5082               	movf	130,w,c	;volatile
  1095  003EB4  1801               	xorwf	??_INT0_DefaultInterruptHandler^0,w,c
  1096  003EB6  0BFD               	andlw	-3
  1097  003EB8  1801               	xorwf	??_INT0_DefaultInterruptHandler^0,w,c
  1098  003EBA  6E82               	movwf	130,c	;volatile
  1099  003EBC  0012               	return		;funcret
  1100  003EBE                     __end_of_INT0_DefaultInterruptHandler:
  1101                           	opt callstack 0
  1102  0000                     
  1103                           	psect	text16
  1104  000000                     __ptext16:
  1105                           	opt callstack 0
  1106  000000                     
  1107                           	psect	rparam
  1108  0000                     
  1109                           	psect	temp
  1110  000011                     btemp:
  1111                           	opt callstack 0
  1112  000011                     	ds	1
  1113  0000                     int$flags	set	btemp
  1114  0000                     wtemp8	set	btemp+1
  1115  0000                     ttemp5	set	btemp+1
  1116  0000                     ttemp6	set	btemp+4
  1117  0000                     ttemp7	set	btemp+8
  1118                           tosu	equ	0xFFF
  1119                           tosh	equ	0xFFE
  1120                           tosl	equ	0xFFD
  1121                           stkptr	equ	0xFFC
  1122                           pclatu	equ	0xFFB
  1123                           pclath	equ	0xFFA
  1124                           pcl	equ	0xFF9
  1125                           tblptru	equ	0xFF8
  1126                           tblptrh	equ	0xFF7
  1127                           tblptrl	equ	0xFF6
  1128                           tablat	equ	0xFF5
  1129                           prodh	equ	0xFF4
  1130                           prodl	equ	0xFF3
  1131                           indf0	equ	0xFEF
  1132                           postinc0	equ	0xFEE
  1133                           postdec0	equ	0xFED
  1134                           preinc0	equ	0xFEC
  1135                           plusw0	equ	0xFEB
  1136                           fsr0h	equ	0xFEA
  1137                           fsr0l	equ	0xFE9
  1138                           wreg	equ	0xFE8
  1139                           indf1	equ	0xFE7
  1140                           postinc1	equ	0xFE6
  1141                           postdec1	equ	0xFE5
  1142                           preinc1	equ	0xFE4
  1143                           plusw1	equ	0xFE3
  1144                           fsr1h	equ	0xFE2
  1145                           fsr1l	equ	0xFE1
  1146                           bsr	equ	0xFE0
  1147                           indf2	equ	0xFDF
  1148                           postinc2	equ	0xFDE
  1149                           postdec2	equ	0xFDD
  1150                           preinc2	equ	0xFDC
  1151                           plusw2	equ	0xFDB
  1152                           fsr2h	equ	0xFDA
  1153                           fsr2l	equ	0xFD9
  1154                           status	equ	0xFD8


Data Sizes:
    Strings     0
    Constant    0
    Data        0
    BSS         0
    Persistent  4
    Stack       0

Auto Spaces:
    Space          Size  Autos    Used
    COMRAM           94     12      16
    BANK0           160      0       0
    BANK1           256      0       0
    BANK2           256      0       0
    BANK3           256      0       0
    BANK4           256      0       0
    BANK5           256      0       0
    BANK6           256      0       0
    BANK7           256      0       0
    BANK8           256      0       0
    BANK9           256      0       0
    BANK10          256      0       0
    BANK11          256      0       0
    BANK12          256      0       0
    BANK13          256      0       0
    BANK14          256      0       0
    BANK15           96      0       0

Pointer List with Targets:

    INT1_SetInterruptHandler@InterruptHandler	PTR FTN()void  size(2) Largest target is 1
		 -> INT1_DefaultInterruptHandler(), 

    INT1_InterruptHandler	PTR FTN()void  size(2) Largest target is 1
		 -> INT1_DefaultInterruptHandler(), Absolute function(), 

    INT0_SetInterruptHandler@InterruptHandler	PTR FTN()void  size(2) Largest target is 1
		 -> INT0_DefaultInterruptHandler(), 

    INT0_InterruptHandler	PTR FTN()void  size(2) Largest target is 1
		 -> INT0_DefaultInterruptHandler(), Absolute function(), 


Critical Paths under _main in COMRAM

    _EXT_INT_Initialize->_INT0_SetInterruptHandler
    _EXT_INT_Initialize->_INT1_SetInterruptHandler

Critical Paths under _INTERRUPT_InterruptManagerLow in COMRAM

    _INT1_CallBack->_INT1_DefaultInterruptHandler

Critical Paths under _INTERRUPT_InterruptManagerHigh in COMRAM

    _INT0_CallBack->_INT0_DefaultInterruptHandler

Critical Paths under _main in BANK0

    None.

Critical Paths under _INTERRUPT_InterruptManagerLow in BANK0

    None.

Critical Paths under _INTERRUPT_InterruptManagerHigh in BANK0

    None.

Critical Paths under _main in BANK1

    None.

Critical Paths under _INTERRUPT_InterruptManagerLow in BANK1

    None.

Critical Paths under _INTERRUPT_InterruptManagerHigh in BANK1

    None.

Critical Paths under _main in BANK2

    None.

Critical Paths under _INTERRUPT_InterruptManagerLow in BANK2

    None.

Critical Paths under _INTERRUPT_InterruptManagerHigh in BANK2

    None.

Critical Paths under _main in BANK3

    None.

Critical Paths under _INTERRUPT_InterruptManagerLow in BANK3

    None.

Critical Paths under _INTERRUPT_InterruptManagerHigh in BANK3

    None.

Critical Paths under _main in BANK4

    None.

Critical Paths under _INTERRUPT_InterruptManagerLow in BANK4

    None.

Critical Paths under _INTERRUPT_InterruptManagerHigh in BANK4

    None.

Critical Paths under _main in BANK5

    None.

Critical Paths under _INTERRUPT_InterruptManagerLow in BANK5

    None.

Critical Paths under _INTERRUPT_InterruptManagerHigh in BANK5

    None.

Critical Paths under _main in BANK6

    None.

Critical Paths under _INTERRUPT_InterruptManagerLow in BANK6

    None.

Critical Paths under _INTERRUPT_InterruptManagerHigh in BANK6

    None.

Critical Paths under _main in BANK7

    None.

Critical Paths under _INTERRUPT_InterruptManagerLow in BANK7

    None.

Critical Paths under _INTERRUPT_InterruptManagerHigh in BANK7

    None.

Critical Paths under _main in BANK8

    None.

Critical Paths under _INTERRUPT_InterruptManagerLow in BANK8

    None.

Critical Paths under _INTERRUPT_InterruptManagerHigh in BANK8

    None.

Critical Paths under _main in BANK9

    None.

Critical Paths under _INTERRUPT_InterruptManagerLow in BANK9

    None.

Critical Paths under _INTERRUPT_InterruptManagerHigh in BANK9

    None.

Critical Paths under _main in BANK10

    None.

Critical Paths under _INTERRUPT_InterruptManagerLow in BANK10

    None.

Critical Paths under _INTERRUPT_InterruptManagerHigh in BANK10

    None.

Critical Paths under _main in BANK11

    None.

Critical Paths under _INTERRUPT_InterruptManagerLow in BANK11

    None.

Critical Paths under _INTERRUPT_InterruptManagerHigh in BANK11

    None.

Critical Paths under _main in BANK12

    None.

Critical Paths under _INTERRUPT_InterruptManagerLow in BANK12

    None.

Critical Paths under _INTERRUPT_InterruptManagerHigh in BANK12

    None.

Critical Paths under _main in BANK13

    None.

Critical Paths under _INTERRUPT_InterruptManagerLow in BANK13

    None.

Critical Paths under _INTERRUPT_InterruptManagerHigh in BANK13

    None.

Critical Paths under _main in BANK14

    None.

Critical Paths under _INTERRUPT_InterruptManagerLow in BANK14

    None.

Critical Paths under _INTERRUPT_InterruptManagerHigh in BANK14

    None.

Critical Paths under _main in BANK15

    None.

Critical Paths under _INTERRUPT_InterruptManagerLow in BANK15

    None.

Critical Paths under _INTERRUPT_InterruptManagerHigh in BANK15

    None.

Call Graph Tables:

 ---------------------------------------------------------------------------------
 (Depth) Function   	        Calls       Base Space   Used Autos Params    Refs
 ---------------------------------------------------------------------------------
 (0) _main                                                 1     1      0     196
                                             11 COMRAM     1     1      0
                  _SYSTEM_Initialize
 ---------------------------------------------------------------------------------
 (1) _SYSTEM_Initialize                                    0     0      0     196
                 _EXT_INT_Initialize
               _INTERRUPT_Initialize
              _OSCILLATOR_Initialize
             _PIN_MANAGER_Initialize
 ---------------------------------------------------------------------------------
 (2) _PIN_MANAGER_Initialize                               0     0      0       0
 ---------------------------------------------------------------------------------
 (2) _OSCILLATOR_Initialize                                0     0      0       0
 ---------------------------------------------------------------------------------
 (2) _INTERRUPT_Initialize                                 0     0      0       0
 ---------------------------------------------------------------------------------
 (2) _EXT_INT_Initialize                                   0     0      0     196
           _INT0_SetInterruptHandler
           _INT1_SetInterruptHandler
 ---------------------------------------------------------------------------------
 (3) _INT1_SetInterruptHandler                             2     0      2      98
                                              9 COMRAM     2     0      2
 ---------------------------------------------------------------------------------
 (3) _INT0_SetInterruptHandler                             2     0      2      98
                                              9 COMRAM     2     0      2
 ---------------------------------------------------------------------------------
 Estimated maximum stack depth 3
 ---------------------------------------------------------------------------------
 (Depth) Function   	        Calls       Base Space   Used Autos Params    Refs
 ---------------------------------------------------------------------------------
 (4) _INTERRUPT_InterruptManagerLow                        5     5      0       0
                                              4 COMRAM     5     5      0
                           _INT1_ISR
 ---------------------------------------------------------------------------------
 (5) _INT1_ISR                                             0     0      0       0
                      _INT1_CallBack
 ---------------------------------------------------------------------------------
 (6) _INT1_CallBack                                        0     0      0       0
                   Absolute function *
       _INT1_DefaultInterruptHandler *
 ---------------------------------------------------------------------------------
 (7) _INT1_DefaultInterruptHandler                         1     1      0       0
                                              3 COMRAM     1     1      0
 ---------------------------------------------------------------------------------
 (11) Absolute function(Fake)                              0     0      0       0
 ---------------------------------------------------------------------------------
 Estimated maximum stack depth 11
 ---------------------------------------------------------------------------------
 (Depth) Function   	        Calls       Base Space   Used Autos Params    Refs
 ---------------------------------------------------------------------------------
 (8) _INTERRUPT_InterruptManagerHigh                       2     2      0       0
                                              1 COMRAM     2     2      0
                           _INT0_ISR
 ---------------------------------------------------------------------------------
 (9) _INT0_ISR                                             0     0      0       0
                      _INT0_CallBack
 ---------------------------------------------------------------------------------
 (10) _INT0_CallBack                                       0     0      0       0
                   Absolute function *
       _INT0_DefaultInterruptHandler *
 ---------------------------------------------------------------------------------
 (11) _INT0_DefaultInterruptHandler                        1     1      0       0
                                              0 COMRAM     1     1      0
 ---------------------------------------------------------------------------------
 (11) Absolute function(Fake)                              0     0      0       0
 ---------------------------------------------------------------------------------
 Estimated maximum stack depth 11
 ---------------------------------------------------------------------------------

 Call Graph Graphs:

 _main (ROOT)
   _SYSTEM_Initialize
     _EXT_INT_Initialize
       _INT0_SetInterruptHandler
       _INT1_SetInterruptHandler
     _INTERRUPT_Initialize
     _OSCILLATOR_Initialize
     _PIN_MANAGER_Initialize

 _INTERRUPT_InterruptManagerLow (ROOT)
   _INT1_ISR
     _INT1_CallBack
       Absolute function(Fake) *
       _INT1_DefaultInterruptHandler *

 _INTERRUPT_InterruptManagerHigh (ROOT)
   _INT0_ISR
     _INT0_CallBack
       Absolute function(Fake) *
       _INT0_DefaultInterruptHandler *

 Address spaces:
Name               Size   Autos  Total    Cost      Usage
BITCOMRAM           5E      0       0       0        0.0%
EEDATA             400      0       0       0        0.0%
NULL                 0      0       0       0        0.0%
CODE                 0      0       0       0        0.0%
COMRAM              5E      C      10       1       17.0%
STACK                0      0       0       2        0.0%
DATA                 0      0      10       3        0.0%
BITBANK0            A0      0       0       4        0.0%
BANK0               A0      0       0       5        0.0%
BITBANK1           100      0       0       6        0.0%
BANK1              100      0       0       7        0.0%
BITBANK2           100      0       0       8        0.0%
BANK2              100      0       0       9        0.0%
BITBANK3           100      0       0      10        0.0%
BANK3              100      0       0      11        0.0%
BITBANK4           100      0       0      12        0.0%
BANK4              100      0       0      13        0.0%
BITBANK5           100      0       0      14        0.0%
BANK5              100      0       0      15        0.0%
BITBANK6           100      0       0      16        0.0%
BANK6              100      0       0      17        0.0%
BITBANK7           100      0       0      18        0.0%
BANK7              100      0       0      19        0.0%
BITBANK8           100      0       0      20        0.0%
BANK8              100      0       0      21        0.0%
BITBANK9           100      0       0      22        0.0%
BANK9              100      0       0      23        0.0%
BITBANK10          100      0       0      24        0.0%
BANK10             100      0       0      25        0.0%
BITBANK11          100      0       0      26        0.0%
BANK11             100      0       0      27        0.0%
BITBANK12          100      0       0      28        0.0%
BANK12             100      0       0      29        0.0%
BITBANK13          100      0       0      30        0.0%
BANK13             100      0       0      31        0.0%
ABS                  0      0      10      32        0.0%
BITBANK14          100      0       0      33        0.0%
BANK14             100      0       0      34        0.0%
BITBANK15           60      0       0      35        0.0%
BANK15              60      0       0      36        0.0%
BIGRAM             F5F      0       0      37        0.0%
BITSFR               0      0       0     200        0.0%
SFR                  0      0       0     200        0.0%


Microchip Technology PIC18 Macro Assembler V2.10 build 88905656 
Symbol Table                                                                                   Sat Sep 19 16:20:20 2020

                                      l33 3F94                                        l51 3E98  
                                      l54 3E78                                        l67 3E4A  
                                      bsr 000FE0                              __CFG_CP0$OFF 000000  
                            __CFG_CP1$OFF 000000                              __CFG_CP2$OFF 000000  
                            __CFG_CP3$OFF 000000                               __CFG_LVP$ON 000000  
                                     l105 3E64                                       l124 3F08  
                                     l118 3E6E                                       l902 3E5C  
                                     l910 3EF4                                       l830 3F86  
                                     l904 3E66                                       l912 3EF6  
                                     l832 3F88                                       l824 3F66  
                                     l920 3E8C                                       l914 3EF8  
                                     l906 3EE4                                       l834 3F92  
                                     l826 3F7E                                       l922 3E90  
                                     l930 3FD0                                       l916 3F06  
                                     l908 3EE8                                       l836 3E46  
                                     l828 3F80                                       l924 3E94  
                                     l932 3FD2                                       l838 3E70  
                                     l918 3E88                                       l934 3FD4  
                                     l926 3FCA                                       l936 3FF4  
                                     l928 3FCE                              __CFG_CPB$OFF 000000  
                                     u120 3FE4                                       u121 3FDE  
                                     u126 3FE6                              __CFG_CPD$OFF 000000  
              ??_INT0_SetInterruptHandler 000C                              __CFG_BORV$18 000000  
                                     tosl 000FFD                                       wreg 000FE8  
                           _INT0_CallBack 3F0A                              __CFG_FOSC$HS 000000  
                           _INT1_CallBack 3F38                                      _LATA 000F89  
                                    _LATB 000F8A                                      _LATC 000F8B  
                                    _LATD 000F8C                                      _LATE 000F8D  
                                    i1l79 004E                                      i2l73 3FBE  
                                    i2l98 3E52                                      _WPUB 000F7C  
                                    _main 3FCA                                      btemp 0011  
                                    start 0066                             __CFG_IESO$OFF 000000  
                           __CFG_MCLRE$ON 000000                              ___param_bank 000000  
                        __end_of_INT0_ISR 3E54                          __end_of_INT1_ISR 3E5C  
          __size_of_OSCILLATOR_Initialize 000A             __end_of_OSCILLATOR_Initialize 3E7A  
                                   ?_main 0001                                     _ANSEL 000F7E  
                          __CFG_DEBUG$OFF 000000                                     i1l111 3E5A  
                                   i1l121 3EE2                                     i1l115 3F64  
                                   i2l102 3F36                                     i2l108 3EBC  
                                   i1l822 3EBE                                     i1l856 3F38  
                                   i1l872 3E54                                     i1l858 3F4A  
                                   i1l874 3E56                                     i1l884 002E  
                                   i1l886 003C                                     i1l888 004A  
                                   i2l818 3E9A                                     i2l852 3F0A  
                                   i2l854 3F1C                                     i2l870 3E4E  
                                   i2l880 3FAC                                     i2l882 3FBA  
                                   i2l868 3E4C                                     i2l878 3F9E  
                                   _TRISA 000F92                                     _TRISB 000F93  
                          ?_INT0_CallBack 0001                                     _TRISC 000F94  
                                   _TRISD 000F95                                     _TRISE 000F96  
                           __CFG_PWRT$OFF 000000                             __CFG_WRT0$OFF 000000  
                           __CFG_WRT1$OFF 000000                             __CFG_WRT2$OFF 000000  
                           __CFG_WRT3$OFF 000000                            __CFG_EBTR0$OFF 000000  
                          __CFG_FCMEN$OFF 000000                            __CFG_EBTR1$OFF 000000  
                          __CFG_EBTR2$OFF 000000                            __CFG_EBTR3$OFF 000000  
                           __CFG_WRTB$OFF 000000                             __CFG_WRTC$OFF 000000  
                           __CFG_WRTD$OFF 000000                            ?_INT1_CallBack 0001  
                          __CFG_EBTRB$OFF 000000            ??_INT1_DefaultInterruptHandler 0004  
                _INT1_SetInterruptHandler 3E66                                     pclath 000FFA  
                                   ttemp5 0012                                     ttemp6 0015  
                                   ttemp7 0019                                     status 000FD8  
                                   wtemp8 0012                            __CFG_HFOFST$ON 000000  
          ?_INTERRUPT_InterruptManagerLow 0001                            __CFG_PBADEN$ON 000000  
                         __initialization 3E7A                              __end_of_main 4000  
                                  ??_main 000C                             __activetblptr 000002  
                                  _ANSELH 000F7F                            __CFG_WDTEN$OFF 000000  
                                  _OSCCON 000FD3                                    i1u2_20 3ECE  
                                  i1u2_21 3EC8                                    i1u2_26 3ED0  
                                  i1u5_20 3F4A                                    i1u5_21 3F46  
                                  i2u1_40 3EAA                                    i2u1_41 3EA4  
                                  i2u1_46 3EAC                                    i1u6_28 3F50  
                                  i1u6_29 3F64                                    i2u3_40 3F1C  
                                  i2u3_41 3F18                                    i1u9_20 003C  
                                  i1u9_21 0038                                    i2u4_48 3F22  
                                  i2u4_49 3F36                                    i2u7_40 3FAC  
                                  i2u7_41 3FA8                                    i2u8_40 3FBA  
                                  i2u8_41 3FB6                            __CFG_XINST$OFF 000000  
                          __CFG_STVREN$ON 000000                           ??_INT0_CallBack 0002  
                         ??_INT1_CallBack 0005                                    tblptru 000FF8  
INT1_SetInterruptHandler@InterruptHandler 000A  INT0_SetInterruptHandler@InterruptHandler 000A  
           __size_of_INTERRUPT_Initialize 0006          ??_INTERRUPT_InterruptManagerHigh 0002  
         ?_INTERRUPT_InterruptManagerHigh 0001                         _SYSTEM_Initialize 3E88  
                              __accesstop 0060                   __end_of__initialization 3E7A  
                               ?_INT0_ISR 0001                                 ?_INT1_ISR 0001  
                      ?_SYSTEM_Initialize 0001                             ___rparam_used 000001  
                          __pcstackCOMRAM 0001                       ??_SYSTEM_Initialize 000C  
             __size_of_EXT_INT_Initialize 0026                 __end_of_SYSTEM_Initialize 3E9A  
                   _INT0_InterruptHandler 000F                                ??_INT0_ISR 0002  
                              ??_INT1_ISR 0005                                __pnvCOMRAM 000D  
              ??_INT1_SetInterruptHandler 000C                                   i1u10_20 004A  
                                 i1u10_21 0046                                   _OSCTUNE 000F9B  
       __size_of_INT0_SetInterruptHandler 000A                 ?_INT0_SetInterruptHandler 000A  
                                 __Hparam 0000                                   __Lparam 0000  
                                 __pcinit 3E7A                                   __ramtop 1000  
                                 __ptext0 3FCA                                   __ptext1 3E88  
                                 __ptext2 3F66                                   __ptext3 3E70  
                                 __ptext4 3E46                                   __ptext5 3EE4  
                                 __ptext6 3E66                                   __ptext7 3E5C  
                                 __ptext9 3E54                     _OSCILLATOR_Initialize 3E70  
                ??_PIN_MANAGER_Initialize 000A                __size_of_SYSTEM_Initialize 0012  
                          __pintcode_body 3F96                      end_of_initialization 3E7A  
                           __Lmediumconst 0000                                   int_func 3F96  
                   _INT1_InterruptHandler 000D                                 _PORTCbits 000F82  
                       __size_of_INT0_ISR 0008                         __size_of_INT1_ISR 0008  
            __end_of_INTERRUPT_Initialize 3E4C      __end_of_INT0_DefaultInterruptHandler 3EBE  
   __size_of_INT0_DefaultInterruptHandler 0024              _INT0_DefaultInterruptHandler 3E9A  
                  ?_OSCILLATOR_Initialize 0001                     __end_of_INT0_CallBack 3F38  
                     start_initialization 3E7A           __size_of_PIN_MANAGER_Initialize 0030  
                   __end_of_INT1_CallBack 3F66                          __CFG_LPT1OSC$OFF 000000  
              __end_of_EXT_INT_Initialize 3F0A           fp__INT0_DefaultInterruptHandler 0000  
           ?_INT0_DefaultInterruptHandler 0001          __end_of_INT0_SetInterruptHandler 3E66  
                  _PIN_MANAGER_Initialize 3F66                         __CFG_CCP2MX$PORTC 000000  
                               __pintcode 0008                               __pintcodelo 0018  
                    _INTERRUPT_Initialize 3E46                                  _INT0_ISR 3E4C  
                                _INT1_ISR 3E54         __size_of_INT1_SetInterruptHandler 000A  
               ?_INT1_SetInterruptHandler 000A                                  _RCONbits 000FD0  
                        __CFG_WDTPS$32768 000000            ??_INT0_DefaultInterruptHandler 0001  
                             _INTCON2bits 000FF1                               _INTCON3bits 000FF0  
                   ?_INTERRUPT_Initialize 0001                  _INT0_SetInterruptHandler 3E5C  
                                __Hrparam 0000                                  __Lrparam 0000  
                      __CFG_BOREN$SBORDIS 000000                   ??_OSCILLATOR_Initialize 000A  
         ??_INTERRUPT_InterruptManagerLow 0005                                  __ptext10 3F38  
                                __ptext11 3EBE                                  __ptext13 3E4C  
                                __ptext14 3F0A                                  __ptext15 3E9A  
                                __ptext16 0000                             __size_of_main 0036  
                                int$flags 0011      __end_of_INT1_DefaultInterruptHandler 3EE4  
   __size_of_INT1_DefaultInterruptHandler 0026              _INT1_DefaultInterruptHandler 3EBE  
                              _INTCONbits 000FF2                    ??_INTERRUPT_Initialize 000A  
                      _EXT_INT_Initialize 3EE4                                  intlevel1 0000  
                                intlevel2 0000                   ?_PIN_MANAGER_Initialize 0001  
                     ?_EXT_INT_Initialize 0001                    __size_of_INT0_CallBack 002E  
                  __size_of_INT1_CallBack 002E    __end_of_INTERRUPT_InterruptManagerHigh 3FCA  
 __size_of_INTERRUPT_InterruptManagerHigh 3FC2            _INTERRUPT_InterruptManagerHigh 0008  
                    ??_EXT_INT_Initialize 000C           fp__INT1_DefaultInterruptHandler 0000  
           ?_INT1_DefaultInterruptHandler 0001          __end_of_INT1_SetInterruptHandler 3E70  
   __end_of_INTERRUPT_InterruptManagerLow 0066    __size_of_INTERRUPT_InterruptManagerLow 004E  
           _INTERRUPT_InterruptManagerLow 0018            __end_of_PIN_MANAGER_Initialize 3F96  
