

Microchip MPLAB XC8 Assembler V2.10 build 88905656 
                                                                                               Sat Oct 17 14:23:46 2020

Microchip MPLAB XC8 C Compiler v2.10 (Free license) build 20190730164152 Og1 
     1                           	processor	18F46K20
     2                           	fnconf	rparam,??,?,0
     3                           	opt	pw 120
     4                           	opt	flic
     5                           	psect	idataCOMRAM,global,class=CODE,delta=1,noexec
     6                           	psect	cinit,global,reloc=2,class=CODE,delta=1
     7                           	psect	bssCOMRAM,global,class=COMRAM,space=1,delta=1,noexec
     8                           	psect	dataCOMRAM,global,class=COMRAM,space=1,delta=1,noexec
     9                           	psect	cstackCOMRAM,global,class=COMRAM,space=1,delta=1,noexec
    10                           	psect	text0,global,reloc=2,class=CODE,delta=1
    11                           	psect	text1,global,reloc=2,class=CODE,delta=1
    12                           	psect	text2,global,reloc=2,class=CODE,delta=1
    13                           	psect	intsave_regs,global,class=BIGRAM,space=1,delta=1,noexec
    14                           	psect	rparam,global,class=COMRAM,space=1,delta=1,noexec
    15  0000                     
    16                           ; Version 2.10
    17                           ; Generated 31/07/2019 GMT
    18                           ; 
    19                           ; Copyright © 2019, Microchip Technology Inc. and its subsidiaries ("Microchip")
    20                           ; All rights reserved.
    21                           ; 
    22                           ; This software is developed by Microchip Technology Inc. and its subsidiaries ("Microch
      +                          ip").
    23                           ; 
    24                           ; Redistribution and use in source and binary forms, with or without modification, are
    25                           ; permitted provided that the following conditions are met:
    26                           ; 
    27                           ;     1. Redistributions of source code must retain the above copyright notice, this lis
      +                          t of
    28                           ;        conditions and the following disclaimer.
    29                           ; 
    30                           ;     2. Redistributions in binary form must reproduce the above copyright notice, this 
      +                          list
    31                           ;        of conditions and the following disclaimer in the documentation and/or other
    32                           ;        materials provided with the distribution.
    33                           ; 
    34                           ;     3. Microchip's name may not be used to endorse or promote products derived from th
      +                          is
    35                           ;        software without specific prior written permission.
    36                           ; 
    37                           ; THIS SOFTWARE IS PROVIDED BY MICROCHIP "AS IS" AND ANY EXPRESS OR IMPLIED WARRANTIES,
    38                           ; INCLUDING, BUT NOT LIMITED TO, THE IMPLIED WARRANTIES OF MERCHANTABILITY AND FITNESS F
      +                          OR
    39                           ; PURPOSE ARE DISCLAIMED.  IN NO EVENT SHALL MICROCHIP BE LIABLE FOR ANY DIRECT, INDIREC
      +                          T,
    40                           ; INCIDENTAL, SPECIAL, EXEMPLARY, OR CONSEQUENTIAL DAMAGES (INCLUDING BUT NOT LIMITED TO
    41                           ; PROCUREMENT OF SUBSTITUTE GOODS OR SERVICES; LOSS OF USE, DATA OR PROFITS; OR BUSINESS
    42                           ; INTERRUPTION) HOWSOEVER CAUSED AND ON ANY THEORY OF LIABILITY, WHETHER IN CONTRACT, ST
      +                          RICT
    43                           ; LIABILITY, OR TORT (INCLUDING NEGLIGENCE OR OTHERWISE) ARISING IN ANY WAY OUT OF THE U
      +                          SE OF
    44                           ; THIS SOFTWARE, EVEN IF ADVISED OF THE POSSIBILITY OF SUCH DAMAGE.
    45                           ; 
    46                           ; 
    47                           ; Code-generator required, PIC18F46K20 Definitions
    48                           ; 
    49                           ; SFR Addresses
    50  0000                     
    51                           	psect	idataCOMRAM
    52  00FD82                     __pidataCOMRAM:
    53                           	opt callstack 0
    54                           
    55                           ;initializer for _port_register
    56  00FD82  80                 	db	128
    57  00FD83  0F                 	db	15
    58  00FD84  81                 	db	129
    59  00FD85  0F                 	db	15
    60  00FD86  82                 	db	130
    61  00FD87  0F                 	db	15
    62  00FD88  83                 	db	131
    63  00FD89  0F                 	db	15
    64  00FD8A  84                 	db	132
    65  00FD8B  0F                 	db	15
    66                           
    67                           ;initializer for _lat_register
    68  00FD8C  89                 	db	137
    69  00FD8D  0F                 	db	15
    70  00FD8E  8A                 	db	138
    71  00FD8F  0F                 	db	15
    72  00FD90  8B                 	db	139
    73  00FD91  0F                 	db	15
    74  00FD92  8C                 	db	140
    75  00FD93  0F                 	db	15
    76  00FD94  8D                 	db	141
    77  00FD95  0F                 	db	15
    78                           
    79                           ;initializer for _tris_register
    80  00FD96  92                 	db	146
    81  00FD97  0F                 	db	15
    82  00FD98  93                 	db	147
    83  00FD99  0F                 	db	15
    84  00FD9A  94                 	db	148
    85  00FD9B  0F                 	db	15
    86  00FD9C  95                 	db	149
    87  00FD9D  0F                 	db	15
    88  00FD9E  96                 	db	150
    89  00FD9F  0F                 	db	15
    90  0000                     _LATE	set	3981
    91  0000                     _LATD	set	3980
    92  0000                     _LATC	set	3979
    93  0000                     _LATB	set	3978
    94  0000                     _LATA	set	3977
    95  0000                     _TRISE	set	3990
    96  0000                     _TRISD	set	3989
    97  0000                     _TRISC	set	3988
    98  0000                     _TRISB	set	3987
    99  0000                     _TRISA	set	3986
   100                           
   101                           ; #config settings
   102  0000                     
   103                           	psect	cinit
   104  00FDA0                     __pcinit:
   105                           	opt callstack 0
   106  00FDA0                     start_initialization:
   107                           	opt callstack 0
   108  00FDA0                     __initialization:
   109                           	opt callstack 0
   110                           
   111                           ; Initialize objects allocated to COMRAM (30 bytes)
   112                           ; load TBLPTR registers with __pidataCOMRAM
   113  00FDA0  0E82               	movlw	low __pidataCOMRAM
   114  00FDA2  6EF6               	movwf	tblptrl,c
   115  00FDA4  0EFD               	movlw	high __pidataCOMRAM
   116  00FDA6  6EF7               	movwf	tblptrh,c
   117  00FDA8  0E00               	movlw	low (__pidataCOMRAM shr (0+16))
   118  00FDAA  6EF8               	movwf	tblptru,c
   119  00FDAC  EE00  F001         	lfsr	0,__pdataCOMRAM
   120  00FDB0  EE10 F01E          	lfsr	1,30
   121  00FDB4                     copy_data0:
   122  00FDB4  0009               	tblrd		*+
   123  00FDB6  CFF5 FFEE          	movff	tablat,postinc0
   124  00FDBA  50E5               	movf	postdec1,w,c
   125  00FDBC  50E1               	movf	fsr1l,w,c
   126  00FDBE  E1FA               	bnz	copy_data0
   127                           
   128                           ; Clear objects allocated to COMRAM (1 bytes)
   129  00FDC0  6A2A               	clrf	__pbssCOMRAM& (0+255),c
   130  00FDC2                     end_of_initialization:
   131                           	opt callstack 0
   132  00FDC2                     __end_of__initialization:
   133                           	opt callstack 0
   134  00FDC2  0E00               	movlw	low (__Lmediumconst shr (0+16))
   135  00FDC4  6EF8               	movwf	tblptru,c
   136  00FDC6  0100               	movlb	0
   137  00FDC8  EFE6  F07E         	goto	_main	;jump to C main() function
   138                           
   139                           	psect	bssCOMRAM
   140  00002A                     __pbssCOMRAM:
   141                           	opt callstack 0
   142  00002A                     _var:
   143                           	opt callstack 0
   144  00002A                     	ds	1
   145                           
   146                           	psect	dataCOMRAM
   147  000001                     __pdataCOMRAM:
   148                           	opt callstack 0
   149  000001                     	ds	10
   150  00000B                     _lat_register:
   151                           	opt callstack 0
   152  00000B                     	ds	10
   153  000015                     _tris_register:
   154                           	opt callstack 0
   155  000015                     	ds	10
   156                           
   157                           	psect	cstackCOMRAM
   158  00001F                     __pcstackCOMRAM:
   159                           	opt callstack 0
   160  00001F                     gpio_pin_direction_intialize@pin:
   161                           	opt callstack 0
   162  00001F                     gpio_pin_write_value@pin:
   163                           	opt callstack 0
   164                           
   165                           ; 1 bytes @ 0x0
   166  00001F                     	ds	1
   167  000020                     gpio_pin_direction_intialize@direction:
   168                           	opt callstack 0
   169  000020                     gpio_pin_write_value@logic:
   170                           	opt callstack 0
   171                           
   172                           ; 1 bytes @ 0x1
   173  000020                     	ds	1
   174  000021                     ??_gpio_pin_direction_intialize:
   175  000021                     ??_gpio_pin_write_value:
   176                           
   177                           ; 1 bytes @ 0x2
   178  000021                     	ds	6
   179  000027                     gpio_pin_direction_intialize@port:
   180                           	opt callstack 0
   181  000027                     gpio_pin_write_value@port:
   182                           	opt callstack 0
   183                           
   184                           ; 1 bytes @ 0x8
   185  000027                     	ds	1
   186  000028                     ??_main:
   187                           
   188                           ; 1 bytes @ 0x9
   189  000028                     	ds	2
   190                           
   191 ;;
   192 ;;Main: autosize = 0, tempsize = 2, incstack = 0, save=0
   193 ;;
   194 ;; *************** function _main *****************
   195 ;; Defined at:
   196 ;;		line 12 in file "application.c"
   197 ;; Parameters:    Size  Location     Type
   198 ;;		None
   199 ;; Auto vars:     Size  Location     Type
   200 ;;		None
   201 ;; Return value:  Size  Location     Type
   202 ;;                  2   12[None  ] int 
   203 ;; Registers used:
   204 ;;		wreg, fsr2l, fsr2h, status,2, status,0, prodl, prodh, cstack
   205 ;; Tracked objects:
   206 ;;		On entry : 0/0
   207 ;;		On exit  : 0/0
   208 ;;		Unchanged: 0/0
   209 ;; Data sizes:     COMRAM   BANK0   BANK1   BANK2   BANK3   BANK4   BANK5   BANK6   BANK7   BANK8   BANK9  BANK10  BANK1
      +1  BANK12  BANK13  BANK14  BANK15
   210 ;;      Params:         0       0       0       0       0       0       0       0       0       0       0       0       
      +0       0       0       0       0
   211 ;;      Locals:         0       0       0       0       0       0       0       0       0       0       0       0       
      +0       0       0       0       0
   212 ;;      Temps:          2       0       0       0       0       0       0       0       0       0       0       0       
      +0       0       0       0       0
   213 ;;      Totals:         2       0       0       0       0       0       0       0       0       0       0       0       
      +0       0       0       0       0
   214 ;;Total ram usage:        2 bytes
   215 ;; Hardware stack levels required when called:    1
   216 ;; This function calls:
   217 ;;		_gpio_pin_direction_intialize
   218 ;;		_gpio_pin_write_value
   219 ;; This function is called by:
   220 ;;		Startup code after reset
   221 ;; This function uses a non-reentrant model
   222 ;;
   223                           
   224                           	psect	text0
   225  00FDCC                     __ptext0:
   226                           	opt callstack 0
   227  00FDCC                     _main:
   228                           	opt callstack 30
   229  00FDCC                     
   230                           ;application.c: 13:     gpio_pin_direction_intialize(PORTC_INDEX, PIN0, DIRECTION_OUTPUT
      +                          );
   231  00FDCC  0E00               	movlw	0
   232  00FDCE  6E1F               	movwf	gpio_pin_direction_intialize@pin^0,c
   233  00FDD0  0E00               	movlw	0
   234  00FDD2  6E20               	movwf	gpio_pin_direction_intialize@direction^0,c
   235  00FDD4  0E02               	movlw	2
   236  00FDD6  EC38  F07F         	call	_gpio_pin_direction_intialize
   237                           
   238                           ;application.c: 14:     gpio_pin_direction_intialize(PORTC_INDEX, PIN1, DIRECTION_OUTPUT
      +                          );
   239  00FDDA  0E01               	movlw	1
   240  00FDDC  6E1F               	movwf	gpio_pin_direction_intialize@pin^0,c
   241  00FDDE  0E00               	movlw	0
   242  00FDE0  6E20               	movwf	gpio_pin_direction_intialize@direction^0,c
   243  00FDE2  0E02               	movlw	2
   244  00FDE4  EC38  F07F         	call	_gpio_pin_direction_intialize
   245                           
   246                           ;application.c: 15:     gpio_pin_write_value(PORTC_INDEX, PIN0, PIN_LOW);
   247  00FDE8  0E00               	movlw	0
   248  00FDEA  6E1F               	movwf	gpio_pin_write_value@pin^0,c
   249  00FDEC  0E00               	movlw	0
   250  00FDEE  6E20               	movwf	gpio_pin_write_value@logic^0,c
   251  00FDF0  0E02               	movlw	2
   252  00FDF2  EC9C  F07F         	call	_gpio_pin_write_value
   253                           
   254                           ;application.c: 16:     gpio_pin_write_value(PORTC_INDEX, PIN1, PIN_LOW);
   255  00FDF6  0E01               	movlw	1
   256  00FDF8  6E1F               	movwf	gpio_pin_write_value@pin^0,c
   257  00FDFA  0E00               	movlw	0
   258  00FDFC  6E20               	movwf	gpio_pin_write_value@logic^0,c
   259  00FDFE  0E02               	movlw	2
   260  00FE00  EC9C  F07F         	call	_gpio_pin_write_value
   261  00FE04                     l13:
   262                           
   263                           ;application.c: 18:         gpio_pin_write_value(PORTC_INDEX, PIN0, PIN_HIGH);
   264  00FE04  0E00               	movlw	0
   265  00FE06  6E1F               	movwf	gpio_pin_write_value@pin^0,c
   266  00FE08  0E01               	movlw	1
   267  00FE0A  6E20               	movwf	gpio_pin_write_value@logic^0,c
   268  00FE0C  0E02               	movlw	2
   269  00FE0E  EC9C  F07F         	call	_gpio_pin_write_value
   270                           
   271                           ;application.c: 19:         gpio_pin_write_value(PORTC_INDEX, PIN1, PIN_LOW);
   272  00FE12  0E01               	movlw	1
   273  00FE14  6E1F               	movwf	gpio_pin_write_value@pin^0,c
   274  00FE16  0E00               	movlw	0
   275  00FE18  6E20               	movwf	gpio_pin_write_value@logic^0,c
   276  00FE1A  0E02               	movlw	2
   277  00FE1C  EC9C  F07F         	call	_gpio_pin_write_value
   278  00FE20                     
   279                           ;application.c: 20:         _delay((unsigned long)((250)*(8000000UL/4000.0)));
   280  00FE20  0E03               	movlw	3
   281  00FE22  6E29               	movwf	(??_main+1)^0,c
   282  00FE24  0E8A               	movlw	138
   283  00FE26  6E28               	movwf	??_main^0,c
   284  00FE28  0E56               	movlw	86
   285  00FE2A                     u187:
   286  00FE2A  2EE8               	decfsz	wreg,f,c
   287  00FE2C  D7FE               	bra	u187
   288  00FE2E  2E28               	decfsz	??_main^0,f,c
   289  00FE30  D7FC               	bra	u187
   290  00FE32  2E29               	decfsz	(??_main+1)^0,f,c
   291  00FE34  D7FA               	bra	u187
   292  00FE36                     
   293                           ;application.c: 21:         gpio_pin_write_value(PORTC_INDEX, PIN0, PIN_LOW);
   294  00FE36  0E00               	movlw	0
   295  00FE38  6E1F               	movwf	gpio_pin_write_value@pin^0,c
   296  00FE3A  0E00               	movlw	0
   297  00FE3C  6E20               	movwf	gpio_pin_write_value@logic^0,c
   298  00FE3E  0E02               	movlw	2
   299  00FE40  EC9C  F07F         	call	_gpio_pin_write_value
   300  00FE44                     
   301                           ;application.c: 22:         gpio_pin_write_value(PORTC_INDEX, PIN1, PIN_HIGH);
   302  00FE44  0E01               	movlw	1
   303  00FE46  6E1F               	movwf	gpio_pin_write_value@pin^0,c
   304  00FE48  0E01               	movlw	1
   305  00FE4A  6E20               	movwf	gpio_pin_write_value@logic^0,c
   306  00FE4C  0E02               	movlw	2
   307  00FE4E  EC9C  F07F         	call	_gpio_pin_write_value
   308  00FE52                     
   309                           ;application.c: 23:         _delay((unsigned long)((250)*(8000000UL/4000.0)));
   310  00FE52  0E03               	movlw	3
   311  00FE54  6E29               	movwf	(??_main+1)^0,c
   312  00FE56  0E8A               	movlw	138
   313  00FE58  6E28               	movwf	??_main^0,c
   314  00FE5A  0E56               	movlw	86
   315  00FE5C                     u197:
   316  00FE5C  2EE8               	decfsz	wreg,f,c
   317  00FE5E  D7FE               	bra	u197
   318  00FE60  2E28               	decfsz	??_main^0,f,c
   319  00FE62  D7FC               	bra	u197
   320  00FE64  2E29               	decfsz	(??_main+1)^0,f,c
   321  00FE66  D7FA               	bra	u197
   322  00FE68  EF02  F07F         	goto	l13
   323  00FE6C  EF00  F000         	goto	start
   324  00FE70                     __end_of_main:
   325                           	opt callstack 0
   326                           
   327 ;; *************** function _gpio_pin_write_value *****************
   328 ;; Defined at:
   329 ;;		line 88 in file "mcal/gpio/mcal_gpio.c"
   330 ;; Parameters:    Size  Location     Type
   331 ;;  port            1    wreg     enum E2537
   332 ;;  pin             1    0[COMRAM] enum E2527
   333 ;;  logic           1    1[COMRAM] enum E2519
   334 ;; Auto vars:     Size  Location     Type
   335 ;;  port            1    8[COMRAM] enum E2537
   336 ;;  ret             1    0        enum E2515
   337 ;; Return value:  Size  Location     Type
   338 ;;                  1    wreg      enum E3005
   339 ;; Registers used:
   340 ;;		wreg, fsr2l, fsr2h, status,2, status,0, prodl, prodh
   341 ;; Tracked objects:
   342 ;;		On entry : 0/0
   343 ;;		On exit  : 0/0
   344 ;;		Unchanged: 0/0
   345 ;; Data sizes:     COMRAM   BANK0   BANK1   BANK2   BANK3   BANK4   BANK5   BANK6   BANK7   BANK8   BANK9  BANK10  BANK1
      +1  BANK12  BANK13  BANK14  BANK15
   346 ;;      Params:         2       0       0       0       0       0       0       0       0       0       0       0       
      +0       0       0       0       0
   347 ;;      Locals:         2       0       0       0       0       0       0       0       0       0       0       0       
      +0       0       0       0       0
   348 ;;      Temps:          5       0       0       0       0       0       0       0       0       0       0       0       
      +0       0       0       0       0
   349 ;;      Totals:         9       0       0       0       0       0       0       0       0       0       0       0       
      +0       0       0       0       0
   350 ;;Total ram usage:        9 bytes
   351 ;; Hardware stack levels used:    1
   352 ;; This function calls:
   353 ;;		Nothing
   354 ;; This function is called by:
   355 ;;		_main
   356 ;; This function uses a non-reentrant model
   357 ;;
   358                           
   359                           	psect	text1
   360  00FF38                     __ptext1:
   361                           	opt callstack 0
   362  00FF38                     _gpio_pin_write_value:
   363                           	opt callstack 30
   364                           
   365                           ;incstack = 0
   366                           ;gpio_pin_write_value@port stored from wreg
   367  00FF38  6E27               	movwf	gpio_pin_write_value@port^0,c
   368  00FF3A                     
   369                           ;mcal/gpio/mcal_gpio.c: 90:     if(pin > 8U -1 || pin < 0){
   370  00FF3A  0E08               	movlw	8
   371  00FF3C  601F               	cpfslt	gpio_pin_write_value@pin^0,c
   372  00FF3E  EFA3  F07F         	goto	u151
   373  00FF42  EFA5  F07F         	goto	u150
   374  00FF46                     u151:
   375  00FF46  EFFF  F07F         	goto	l82
   376  00FF4A                     u150:
   377  00FF4A  EFEA  F07F         	goto	l937
   378  00FF4E                     l927:
   379                           
   380                           ;mcal/gpio/mcal_gpio.c: 96:                 *lat_register[port] &= ~(1U << pin);
   381  00FF4E  C01F  F021         	movff	gpio_pin_write_value@pin,??_gpio_pin_write_value
   382  00FF52  0E01               	movlw	1
   383  00FF54  6E22               	movwf	(??_gpio_pin_write_value+1)^0,c
   384  00FF56  2A21               	incf	??_gpio_pin_write_value^0,f,c
   385  00FF58  EFB0  F07F         	goto	u164
   386  00FF5C                     u165:
   387  00FF5C  90D8               	bcf	status,0,c
   388  00FF5E  3622               	rlcf	(??_gpio_pin_write_value+1)^0,f,c
   389  00FF60                     u164:
   390  00FF60  2E21               	decfsz	??_gpio_pin_write_value^0,f,c
   391  00FF62  EFAE  F07F         	goto	u165
   392  00FF66  5022               	movf	(??_gpio_pin_write_value+1)^0,w,c
   393  00FF68  0AFF               	xorlw	255
   394  00FF6A  6E23               	movwf	(??_gpio_pin_write_value+2)^0,c
   395  00FF6C  5027               	movf	gpio_pin_write_value@port^0,w,c
   396  00FF6E  0D02               	mullw	2
   397  00FF70  0E0B               	movlw	low _lat_register
   398  00FF72  24F3               	addwf	243,w,c
   399  00FF74  6ED9               	movwf	fsr2l,c
   400  00FF76  0E00               	movlw	high _lat_register
   401  00FF78  20F4               	addwfc	prodh,w,c
   402  00FF7A  6EDA               	movwf	fsr2h,c
   403  00FF7C  CFDE F024          	movff	postinc2,??_gpio_pin_write_value+3
   404  00FF80  CFDD F025          	movff	postdec2,??_gpio_pin_write_value+4
   405  00FF84  C024  FFD9         	movff	??_gpio_pin_write_value+3,fsr2l
   406  00FF88  C025  FFDA         	movff	??_gpio_pin_write_value+4,fsr2h
   407  00FF8C  5023               	movf	(??_gpio_pin_write_value+2)^0,w,c
   408  00FF8E  16DF               	andwf	indf2,f,c
   409  00FF90                     l929:
   410                           
   411                           ;mcal/gpio/mcal_gpio.c: 98:                 break;
   412  00FF90  EFFF  F07F         	goto	l82
   413  00FF94                     l931:
   414                           
   415                           ;mcal/gpio/mcal_gpio.c: 100:                 *lat_register[port] |= (1U << pin);
   416  00FF94  C01F  F021         	movff	gpio_pin_write_value@pin,??_gpio_pin_write_value
   417  00FF98  0E01               	movlw	1
   418  00FF9A  6E22               	movwf	(??_gpio_pin_write_value+1)^0,c
   419  00FF9C  2A21               	incf	??_gpio_pin_write_value^0,f,c
   420  00FF9E  EFD3  F07F         	goto	u174
   421  00FFA2                     u175:
   422  00FFA2  90D8               	bcf	status,0,c
   423  00FFA4  3622               	rlcf	(??_gpio_pin_write_value+1)^0,f,c
   424  00FFA6                     u174:
   425  00FFA6  2E21               	decfsz	??_gpio_pin_write_value^0,f,c
   426  00FFA8  EFD1  F07F         	goto	u175
   427  00FFAC  5027               	movf	gpio_pin_write_value@port^0,w,c
   428  00FFAE  0D02               	mullw	2
   429  00FFB0  0E0B               	movlw	low _lat_register
   430  00FFB2  24F3               	addwf	243,w,c
   431  00FFB4  6ED9               	movwf	fsr2l,c
   432  00FFB6  0E00               	movlw	high _lat_register
   433  00FFB8  20F4               	addwfc	prodh,w,c
   434  00FFBA  6EDA               	movwf	fsr2h,c
   435  00FFBC  CFDE F023          	movff	postinc2,??_gpio_pin_write_value+2
   436  00FFC0  CFDD F024          	movff	postdec2,??_gpio_pin_write_value+3
   437  00FFC4  C023  FFD9         	movff	??_gpio_pin_write_value+2,fsr2l
   438  00FFC8  C024  FFDA         	movff	??_gpio_pin_write_value+3,fsr2h
   439  00FFCC  5022               	movf	(??_gpio_pin_write_value+1)^0,w,c
   440  00FFCE  12DF               	iorwf	indf2,f,c
   441  00FFD0  EFC8  F07F         	goto	l929
   442  00FFD4                     l937:
   443  00FFD4  5020               	movf	gpio_pin_write_value@logic^0,w,c
   444  00FFD6  6E21               	movwf	??_gpio_pin_write_value^0,c
   445  00FFD8  6A22               	clrf	(??_gpio_pin_write_value+1)^0,c
   446                           
   447                           ; Switch on 2 bytes has been partitioned into a top level switch of size 1, and 1 sub-sw
      +                          itches
   448                           ; Switch size 1, requested type "simple"
   449                           ; Number of cases is 1, Range of values is 0 to 0
   450                           ; switch strategies available:
   451                           ; Name         Instructions Cycles
   452                           ; simple_byte            4     3 (average)
   453                           ;	Chosen strategy is simple_byte
   454  00FFDA  5022               	movf	(??_gpio_pin_write_value+1)^0,w,c
   455  00FFDC  0A00               	xorlw	0	; case 0
   456  00FFDE  B4D8               	btfsc	status,2,c
   457  00FFE0  EFF4  F07F         	goto	l961
   458  00FFE4  EFFF  F07F         	goto	l82
   459  00FFE8                     l961:
   460                           
   461                           ; Switch size 1, requested type "simple"
   462                           ; Number of cases is 2, Range of values is 0 to 1
   463                           ; switch strategies available:
   464                           ; Name         Instructions Cycles
   465                           ; simple_byte            7     4 (average)
   466                           ;	Chosen strategy is simple_byte
   467  00FFE8  5021               	movf	??_gpio_pin_write_value^0,w,c
   468  00FFEA  0A00               	xorlw	0	; case 0
   469  00FFEC  B4D8               	btfsc	status,2,c
   470  00FFEE  EFA7  F07F         	goto	l927
   471  00FFF2  0A01               	xorlw	1	; case 1
   472  00FFF4  B4D8               	btfsc	status,2,c
   473  00FFF6  EFCA  F07F         	goto	l931
   474  00FFFA  EFFF  F07F         	goto	l82
   475  00FFFE                     l82:
   476  00FFFE  0012               	return		;funcret
   477  010000                     __end_of_gpio_pin_write_value:
   478                           	opt callstack 0
   479                           
   480 ;; *************** function _gpio_pin_direction_intialize *****************
   481 ;; Defined at:
   482 ;;		line 41 in file "mcal/gpio/mcal_gpio.c"
   483 ;; Parameters:    Size  Location     Type
   484 ;;  port            1    wreg     enum E2537
   485 ;;  pin             1    0[COMRAM] enum E2527
   486 ;;  direction       1    1[COMRAM] enum E2523
   487 ;; Auto vars:     Size  Location     Type
   488 ;;  port            1    8[COMRAM] enum E2537
   489 ;;  ret             1    0        enum E2515
   490 ;; Return value:  Size  Location     Type
   491 ;;                  1    wreg      enum E3005
   492 ;; Registers used:
   493 ;;		wreg, fsr2l, fsr2h, status,2, status,0, prodl, prodh
   494 ;; Tracked objects:
   495 ;;		On entry : 0/0
   496 ;;		On exit  : 0/0
   497 ;;		Unchanged: 0/0
   498 ;; Data sizes:     COMRAM   BANK0   BANK1   BANK2   BANK3   BANK4   BANK5   BANK6   BANK7   BANK8   BANK9  BANK10  BANK1
      +1  BANK12  BANK13  BANK14  BANK15
   499 ;;      Params:         2       0       0       0       0       0       0       0       0       0       0       0       
      +0       0       0       0       0
   500 ;;      Locals:         2       0       0       0       0       0       0       0       0       0       0       0       
      +0       0       0       0       0
   501 ;;      Temps:          5       0       0       0       0       0       0       0       0       0       0       0       
      +0       0       0       0       0
   502 ;;      Totals:         9       0       0       0       0       0       0       0       0       0       0       0       
      +0       0       0       0       0
   503 ;;Total ram usage:        9 bytes
   504 ;; Hardware stack levels used:    1
   505 ;; This function calls:
   506 ;;		Nothing
   507 ;; This function is called by:
   508 ;;		_main
   509 ;; This function uses a non-reentrant model
   510 ;;
   511                           
   512                           	psect	text2
   513  00FE70                     __ptext2:
   514                           	opt callstack 0
   515  00FE70                     _gpio_pin_direction_intialize:
   516                           	opt callstack 30
   517                           
   518                           ;incstack = 0
   519                           ;gpio_pin_direction_intialize@port stored from wreg
   520  00FE70  6E27               	movwf	gpio_pin_direction_intialize@port^0,c
   521  00FE72                     
   522                           ;mcal/gpio/mcal_gpio.c: 44:     if(pin > 8U -1 || pin < 0){
   523  00FE72  0E08               	movlw	8
   524  00FE74  601F               	cpfslt	gpio_pin_direction_intialize@pin^0,c
   525  00FE76  EF3F  F07F         	goto	u121
   526  00FE7A  EF41  F07F         	goto	u120
   527  00FE7E                     u121:
   528  00FE7E  EF9B  F07F         	goto	l63
   529  00FE82                     u120:
   530  00FE82  EF86  F07F         	goto	l909
   531  00FE86                     l903:
   532                           
   533                           ;mcal/gpio/mcal_gpio.c: 51:                 (*tris_register[port] &= ~(1U << pin)); brea
      +                          k;
   534  00FE86  C01F  F021         	movff	gpio_pin_direction_intialize@pin,??_gpio_pin_direction_intialize
   535  00FE8A  0E01               	movlw	1
   536  00FE8C  6E22               	movwf	(??_gpio_pin_direction_intialize+1)^0,c
   537  00FE8E  2A21               	incf	??_gpio_pin_direction_intialize^0,f,c
   538  00FE90  EF4C  F07F         	goto	u134
   539  00FE94                     u135:
   540  00FE94  90D8               	bcf	status,0,c
   541  00FE96  3622               	rlcf	(??_gpio_pin_direction_intialize+1)^0,f,c
   542  00FE98                     u134:
   543  00FE98  2E21               	decfsz	??_gpio_pin_direction_intialize^0,f,c
   544  00FE9A  EF4A  F07F         	goto	u135
   545  00FE9E  5022               	movf	(??_gpio_pin_direction_intialize+1)^0,w,c
   546  00FEA0  0AFF               	xorlw	255
   547  00FEA2  6E23               	movwf	(??_gpio_pin_direction_intialize+2)^0,c
   548  00FEA4  5027               	movf	gpio_pin_direction_intialize@port^0,w,c
   549  00FEA6  0D02               	mullw	2
   550  00FEA8  0E15               	movlw	low _tris_register
   551  00FEAA  24F3               	addwf	243,w,c
   552  00FEAC  6ED9               	movwf	fsr2l,c
   553  00FEAE  0E00               	movlw	high _tris_register
   554  00FEB0  20F4               	addwfc	prodh,w,c
   555  00FEB2  6EDA               	movwf	fsr2h,c
   556  00FEB4  CFDE F024          	movff	postinc2,??_gpio_pin_direction_intialize+3
   557  00FEB8  CFDD F025          	movff	postdec2,??_gpio_pin_direction_intialize+4
   558  00FEBC  C024  FFD9         	movff	??_gpio_pin_direction_intialize+3,fsr2l
   559  00FEC0  C025  FFDA         	movff	??_gpio_pin_direction_intialize+4,fsr2h
   560  00FEC4  5023               	movf	(??_gpio_pin_direction_intialize+2)^0,w,c
   561  00FEC6  16DF               	andwf	indf2,f,c
   562  00FEC8  EF9B  F07F         	goto	l911
   563  00FECC                     l905:
   564                           
   565                           ;mcal/gpio/mcal_gpio.c: 54:                 (*tris_register[port] |= (1U << pin)); break
      +                          ;
   566  00FECC  C01F  F021         	movff	gpio_pin_direction_intialize@pin,??_gpio_pin_direction_intialize
   567  00FED0  0E01               	movlw	1
   568  00FED2  6E22               	movwf	(??_gpio_pin_direction_intialize+1)^0,c
   569  00FED4  2A21               	incf	??_gpio_pin_direction_intialize^0,f,c
   570  00FED6  EF6F  F07F         	goto	u144
   571  00FEDA                     u145:
   572  00FEDA  90D8               	bcf	status,0,c
   573  00FEDC  3622               	rlcf	(??_gpio_pin_direction_intialize+1)^0,f,c
   574  00FEDE                     u144:
   575  00FEDE  2E21               	decfsz	??_gpio_pin_direction_intialize^0,f,c
   576  00FEE0  EF6D  F07F         	goto	u145
   577  00FEE4  5027               	movf	gpio_pin_direction_intialize@port^0,w,c
   578  00FEE6  0D02               	mullw	2
   579  00FEE8  0E15               	movlw	low _tris_register
   580  00FEEA  24F3               	addwf	243,w,c
   581  00FEEC  6ED9               	movwf	fsr2l,c
   582  00FEEE  0E00               	movlw	high _tris_register
   583  00FEF0  20F4               	addwfc	prodh,w,c
   584  00FEF2  6EDA               	movwf	fsr2h,c
   585  00FEF4  CFDE F023          	movff	postinc2,??_gpio_pin_direction_intialize+2
   586  00FEF8  CFDD F024          	movff	postdec2,??_gpio_pin_direction_intialize+3
   587  00FEFC  C023  FFD9         	movff	??_gpio_pin_direction_intialize+2,fsr2l
   588  00FF00  C024  FFDA         	movff	??_gpio_pin_direction_intialize+3,fsr2h
   589  00FF04  5022               	movf	(??_gpio_pin_direction_intialize+1)^0,w,c
   590  00FF06  12DF               	iorwf	indf2,f,c
   591  00FF08  EF9B  F07F         	goto	l911
   592  00FF0C                     l909:
   593  00FF0C  5020               	movf	gpio_pin_direction_intialize@direction^0,w,c
   594  00FF0E  6E21               	movwf	??_gpio_pin_direction_intialize^0,c
   595  00FF10  6A22               	clrf	(??_gpio_pin_direction_intialize+1)^0,c
   596                           
   597                           ; Switch on 2 bytes has been partitioned into a top level switch of size 1, and 1 sub-sw
      +                          itches
   598                           ; Switch size 1, requested type "simple"
   599                           ; Number of cases is 1, Range of values is 0 to 0
   600                           ; switch strategies available:
   601                           ; Name         Instructions Cycles
   602                           ; simple_byte            4     3 (average)
   603                           ;	Chosen strategy is simple_byte
   604  00FF12  5022               	movf	(??_gpio_pin_direction_intialize+1)^0,w,c
   605  00FF14  0A00               	xorlw	0	; case 0
   606  00FF16  B4D8               	btfsc	status,2,c
   607  00FF18  EF90  F07F         	goto	l963
   608  00FF1C  EF9B  F07F         	goto	l63
   609  00FF20                     l963:
   610                           
   611                           ; Switch size 1, requested type "simple"
   612                           ; Number of cases is 2, Range of values is 0 to 1
   613                           ; switch strategies available:
   614                           ; Name         Instructions Cycles
   615                           ; simple_byte            7     4 (average)
   616                           ;	Chosen strategy is simple_byte
   617  00FF20  5021               	movf	??_gpio_pin_direction_intialize^0,w,c
   618  00FF22  0A00               	xorlw	0	; case 0
   619  00FF24  B4D8               	btfsc	status,2,c
   620  00FF26  EF43  F07F         	goto	l903
   621  00FF2A  0A01               	xorlw	1	; case 1
   622  00FF2C  B4D8               	btfsc	status,2,c
   623  00FF2E  EF66  F07F         	goto	l905
   624  00FF32  EF9B  F07F         	goto	l63
   625  00FF36                     l911:
   626  00FF36                     l63:
   627  00FF36  0012               	return		;funcret
   628  00FF38                     __end_of_gpio_pin_direction_intialize:
   629                           	opt callstack 0
   630  0000                     
   631                           	psect	rparam
   632  0000                     tosu	equ	0xFFF
   633                           tosh	equ	0xFFE
   634                           tosl	equ	0xFFD
   635                           stkptr	equ	0xFFC
   636                           pclatu	equ	0xFFB
   637                           pclath	equ	0xFFA
   638                           pcl	equ	0xFF9
   639                           tblptru	equ	0xFF8
   640                           tblptrh	equ	0xFF7
   641                           tblptrl	equ	0xFF6
   642                           tablat	equ	0xFF5
   643                           prodh	equ	0xFF4
   644                           prodl	equ	0xFF3
   645                           indf0	equ	0xFEF
   646                           postinc0	equ	0xFEE
   647                           postdec0	equ	0xFED
   648                           preinc0	equ	0xFEC
   649                           plusw0	equ	0xFEB
   650                           fsr0h	equ	0xFEA
   651                           fsr0l	equ	0xFE9
   652                           wreg	equ	0xFE8
   653                           indf1	equ	0xFE7
   654                           postinc1	equ	0xFE6
   655                           postdec1	equ	0xFE5
   656                           preinc1	equ	0xFE4
   657                           plusw1	equ	0xFE3
   658                           fsr1h	equ	0xFE2
   659                           fsr1l	equ	0xFE1
   660                           bsr	equ	0xFE0
   661                           indf2	equ	0xFDF
   662                           postinc2	equ	0xFDE
   663                           postdec2	equ	0xFDD
   664                           preinc2	equ	0xFDC
   665                           plusw2	equ	0xFDB
   666                           fsr2h	equ	0xFDA
   667                           fsr2l	equ	0xFD9
   668                           status	equ	0xFD8


Data Sizes:
    Strings     0
    Constant    0
    Data        30
    BSS         1
    Persistent  0
    Stack       0

Auto Spaces:
    Space          Size  Autos    Used
    COMRAM           95     11      42
    BANK0           160      0       0
    BANK1           256      0       0
    BANK2           256      0       0
    BANK3           256      0       0
    BANK4           256      0       0
    BANK5           256      0       0
    BANK6           256      0       0
    BANK7           256      0       0
    BANK8           256      0       0
    BANK9           256      0       0
    BANK10          256      0       0
    BANK11          256      0       0
    BANK12          256      0       0
    BANK13          256      0       0
    BANK14          256      0       0
    BANK15           96      0       0

Pointer List with Targets:

    port_register	PTR volatile unsigned char [5] size(2) Largest target is 1
		 -> PORTE(SFR[1]), PORTD(SFR[1]), PORTC(SFR[1]), PORTB(SFR[1]), 
		 -> PORTA(SFR[1]), 

    lat_register	PTR volatile unsigned char [5] size(2) Largest target is 1
		 -> LATE(SFR[1]), LATD(SFR[1]), LATC(SFR[1]), LATB(SFR[1]), 
		 -> LATA(SFR[1]), 

    tris_register	PTR volatile unsigned char [5] size(2) Largest target is 1
		 -> TRISE(SFR[1]), TRISD(SFR[1]), TRISC(SFR[1]), TRISB(SFR[1]), 
		 -> TRISA(SFR[1]), 


Critical Paths under _main in COMRAM

    _main->_gpio_pin_direction_intialize
    _main->_gpio_pin_write_value

Critical Paths under _main in BANK0

    None.

Critical Paths under _main in BANK1

    None.

Critical Paths under _main in BANK2

    None.

Critical Paths under _main in BANK3

    None.

Critical Paths under _main in BANK4

    None.

Critical Paths under _main in BANK5

    None.

Critical Paths under _main in BANK6

    None.

Critical Paths under _main in BANK7

    None.

Critical Paths under _main in BANK8

    None.

Critical Paths under _main in BANK9

    None.

Critical Paths under _main in BANK10

    None.

Critical Paths under _main in BANK11

    None.

Critical Paths under _main in BANK12

    None.

Critical Paths under _main in BANK13

    None.

Critical Paths under _main in BANK14

    None.

Critical Paths under _main in BANK15

    None.

Call Graph Tables:

 ---------------------------------------------------------------------------------
 (Depth) Function   	        Calls       Base Space   Used Autos Params    Refs
 ---------------------------------------------------------------------------------
 (0) _main                                                 2     2      0    1509
                                              9 COMRAM     2     2      0
       _gpio_pin_direction_intialize
               _gpio_pin_write_value
 ---------------------------------------------------------------------------------
 (1) _gpio_pin_write_value                                 9     7      2    1059
                                              0 COMRAM     9     7      2
 ---------------------------------------------------------------------------------
 (1) _gpio_pin_direction_intialize                         9     7      2     450
                                              0 COMRAM     9     7      2
 ---------------------------------------------------------------------------------
 Estimated maximum stack depth 1
 ---------------------------------------------------------------------------------

 Call Graph Graphs:

 _main (ROOT)
   _gpio_pin_direction_intialize
   _gpio_pin_write_value

 Address spaces:
Name               Size   Autos  Total    Cost      Usage
BIGRAM             F5F      0       0      37        0.0%
EEDATA             400      0       0       0        0.0%
BITBANK14          100      0       0      33        0.0%
BANK14             100      0       0      34        0.0%
BITBANK13          100      0       0      30        0.0%
BANK13             100      0       0      31        0.0%
BITBANK12          100      0       0      28        0.0%
BANK12             100      0       0      29        0.0%
BITBANK11          100      0       0      26        0.0%
BANK11             100      0       0      27        0.0%
BITBANK10          100      0       0      24        0.0%
BANK10             100      0       0      25        0.0%
BITBANK9           100      0       0      22        0.0%
BANK9              100      0       0      23        0.0%
BITBANK8           100      0       0      20        0.0%
BANK8              100      0       0      21        0.0%
BITBANK7           100      0       0      18        0.0%
BANK7              100      0       0      19        0.0%
BITBANK6           100      0       0      16        0.0%
BANK6              100      0       0      17        0.0%
BITBANK5           100      0       0      14        0.0%
BANK5              100      0       0      15        0.0%
BITBANK4           100      0       0      12        0.0%
BANK4              100      0       0      13        0.0%
BITBANK3           100      0       0      10        0.0%
BANK3              100      0       0      11        0.0%
BITBANK2           100      0       0       8        0.0%
BANK2              100      0       0       9        0.0%
BITBANK1           100      0       0       6        0.0%
BANK1              100      0       0       7        0.0%
BITBANK0            A0      0       0       4        0.0%
BANK0               A0      0       0       5        0.0%
BITBANK15           60      0       0      35        0.0%
BANK15              60      0       0      36        0.0%
BITCOMRAM           5F      0       0       0        0.0%
COMRAM              5F      B      2A       1       44.2%
BITSFR               0      0       0     200        0.0%
SFR                  0      0       0     200        0.0%
STACK                0      0       0       2        0.0%
NULL                 0      0       0       0        0.0%
ABS                  0      0      2A      32        0.0%
DATA                 0      0      2A       3        0.0%
CODE                 0      0       0       0        0.0%


Microchip Technology PIC18 Macro Assembler V2.10 build 88905656 
Symbol Table                                                                                   Sat Oct 17 14:23:46 2020

                                   l13 FE04                                     l63 FF36  
                                   l82 FFFE                           __CFG_CP0$OFF 000000  
                         __CFG_CP1$OFF 000000                           __CFG_CP2$OFF 000000  
                         __CFG_CP3$OFF 000000                            __CFG_LVP$ON 000000  
                                  l911 FF36                                    l903 FE86  
                                  l905 FECC                                    l921 FF3A  
                                  l931 FF94                                    l909 FF0C  
                                  l927 FF4E                                    l919 FF3A  
                                  l951 FE52                                    l943 FDCC  
                                  l961 FFE8                                    l929 FF90  
                                  l937 FFD4                                    l945 FE20  
                                  l963 FF20                                    l947 FE36  
                                  l949 FE44                                    l895 FE72  
                                  l897 FE72                           __CFG_CPB$OFF 000000  
                                  u120 FE82                                    u121 FE7E  
                                  u134 FE98                                    u150 FF4A  
                                  u135 FE94                                    u151 FF46  
                                  u144 FEDE                                    u145 FEDA  
                                  u164 FF60                                    u165 FF5C  
                                  u174 FFA6                                    u175 FFA2  
                         __CFG_CPD$OFF 000000                                    u187 FE2A  
                                  u197 FE5C                                    _var 002A  
                         __CFG_BORV$18 000000                                    prod 000FF3  
                                  wreg 000FE8                           __CFG_FOSC$HS 000000  
                                 _LATA 000F89                                   _LATB 000F8A  
                                 _LATC 000F8B                                   _LATD 000F8C  
                                 _LATE 000F8D                                   _main FDCC  
                                 fsr2h 000FDA                                   indf2 000FDF  
                                 fsr1l 000FE1                                   fsr2l 000FD9  
                                 prodl 000FF3                                   start 0000  
                        __CFG_IESO$OFF 000000                          __CFG_MCLRE$ON 000000  
                         ___param_bank 000000                   _gpio_pin_write_value FF38  
                                ?_main 001F                                  _TRISA 000F92  
                                _TRISB 000F93                                  _TRISC 000F94  
                                _TRISD 000F95                                  _TRISE 000F96  
                        __CFG_PWRT$OFF 000000                          __CFG_WRT0$OFF 000000  
                        __CFG_WRT1$OFF 000000                          __CFG_WRT2$OFF 000000  
                        __CFG_WRT3$OFF 000000                         __CFG_EBTR0$OFF 000000  
                       __CFG_FCMEN$OFF 000000                         __CFG_EBTR1$OFF 000000  
                       __CFG_EBTR2$OFF 000000                         __CFG_EBTR3$OFF 000000  
                        __CFG_WRTB$OFF 000000                          __CFG_WRTC$OFF 000000  
                        __CFG_WRTD$OFF 000000                         __CFG_EBTRB$OFF 000000  
                                tablat 000FF5                                  status 000FD8  
                       __CFG_HFOFST$ON 000000  gpio_pin_direction_intialize@direction 0020  
                      __initialization FDA0                           __end_of_main FE70  
                ?_gpio_pin_write_value 001F                                 ??_main 0028  
                        __activetblptr 000002                         __CFG_WDTEN$OFF 000000  
                        _tris_register 0015                         __CFG_XINST$OFF 000000  
                       __CFG_STVREN$ON 000000                           __pdataCOMRAM 0001  
                               tblptrh 000FF7                                 tblptrl 000FF6  
                               tblptru 000FF8                             __accesstop 0060  
              __end_of__initialization FDC2                        __CFG_PBADEN$OFF 000000  
                        ___rparam_used 000001                         __pcstackCOMRAM 001F  
               ??_gpio_pin_write_value 0021                                __Hparam 0000  
                              __Lparam 0000                                __pcinit FDA0  
                              __ramtop 1000                                __ptext0 FDCC  
                              __ptext1 FF38                                __ptext2 FE70  
                 end_of_initialization FDC2                          __Lmediumconst 0000  
                              postdec1 000FE5                                postdec2 000FDD  
                              postinc0 000FEE                                postinc2 000FDE  
 __end_of_gpio_pin_direction_intialize FF38  __size_of_gpio_pin_direction_intialize 00C8  
         _gpio_pin_direction_intialize FE70                          __pidataCOMRAM FD82  
                  start_initialization FDA0          ?_gpio_pin_direction_intialize 001F  
                         _lat_register 000B               gpio_pin_write_value@port 0027  
        __size_of_gpio_pin_write_value 00C8                       __CFG_LPT1OSC$OFF 000000  
                          __pbssCOMRAM 002A        gpio_pin_direction_intialize@pin 001F  
                    __CFG_CCP2MX$PORTC 000000         ??_gpio_pin_direction_intialize 0021  
                     __CFG_WDTPS$32768 000000                              copy_data0 FDB4  
            gpio_pin_write_value@logic 0020                               __Hrparam 0000  
              gpio_pin_write_value@pin 001F                               __Lrparam 0000  
                   __CFG_BOREN$SBORDIS 000000                          __size_of_main 00A4  
     gpio_pin_direction_intialize@port 0027           __end_of_gpio_pin_write_value 0000  
                        _port_register 0001  
